(dp1
S'b.l.turne'
p2
I1
sS'sch.bip.exklatt'
p3
I1
sS'n.c.anthony'
p4
I1
sS'graebn.exspth'
p5
I1
sS'm.silva'
p6
I1
sS'n.andreev'
p7
I2
sS'hemsl.exrehder'
p8
I1
sS'huberexc.b.clarke'
p9
I1
sS'gravend.'
p10
I2
sS'h.freitas'
p11
I1
sS'j.s.thomson'
p12
I1
sS'f.fuchs'
p13
I1
sS'v.n.vassil.'
p14
I10
sS'gilgexbriq.'
p15
I1
sS't.j.srensen'
p16
I1
sS'desv.exham.'
p17
I2
sS'hassk.'
p18
I4
sS'g.s.torr.'
p19
I1
sS'm.j.warnock'
p20
I6
sS'y.b.harv.'
p21
I1
sS'mnchh.'
p22
I2
sS'j.l.stewartexbrandis'
p23
I1
sS'rich.schulz'
p24
I1
sS'h.lv.extamura'
p25
I1
sS'f.t.pu'
p26
I6
sS'loes.'
p27
I22
sS'dumort.'
p28
I5
sS'balf.f.exbaker'
p29
I1
sS'f.e.lloyd'
p30
I1
sS'krasch.exkorobkov'
p31
I1
sS'c.f.wei'
p32
I1
sS'a.gray'
p33
I367
sS'frd.'
p34
I5
sS'j.liu'
p35
I2
sS'winchexsm.'
p36
I1
sS'm.bieb.exwilld.'
p37
I2
sS'hornem.'
p38
I1
sS'ugbor.'
p39
I1
sS'h.g.ye'
p40
I1
sS'j.r.wheeler'
p41
I1
sS'sternb.'
p42
I2
sS'h.schroet.'
p43
I4
sS'nietofel.'
p44
I14
sS'nakaj.exmaekawa'
p45
I1
sS'andr.'
p46
I2
sS'hochst.exseub.'
p47
I2
sS'o.degener'
p48
I2
sS'balf.f.'
p49
I57
sS'lour.'
p50
I1
sS'wierzb.'
p51
I2
sS'reut.explanch.'
p52
I1
sS'eastw.exj.f.macbr.'
p53
I1
sS'h.f.chow'
p54
I1
sS't.chen'
p55
I10
sS'neesexg.don'
p56
I1
sS'r.s.cowan'
p57
I8
sS'm.schub.'
p58
I3
sS'j.st.-hil.'
p59
I1
sS's.e.dawson'
p60
I1
sS'j.f.macbr.'
p61
I55
sS'm.hayashi'
p62
I1
sS'h.c.lima'
p63
I1
sS'r.w.johnson'
p64
I1
sS's.l.tung'
p65
I7
sS'ooststr.'
p66
I20
sS'q.x.zhang'
p67
I1
sS'g.a.romero'
p68
I2
sS'e.h.kelso'
p69
I2
sS'eggertexc.l.boynton'
p70
I1
sS'c.y.wuexw.t.wang'
p71
I2
sS'a.h.mooreexweath.'
p72
I1
sS's.h.chen'
p73
I1
sS'p.p.j.herman'
p74
I4
sS'servett.'
p75
I1
sS'y.h.zhang'
p76
I7
sS'a.braunexasch.'
p77
I1
sS'franch.exdiels'
p78
I1
sS's.c.liu'
p79
I1
sS'r.m.beauch.'
p80
I5
sS'e.p.st.johnexsmall'
p81
I1
sS'l.s.fleak'
p82
I1
sS'w.knight'
p83
I1
sS'flod.'
p84
I2
sS'bakerexc.h.wright'
p85
I1
sS'l.snchez'
p86
I2
sS'aver.'
p87
I12
sS'b.m.barthol.'
p88
I1
sS'hoppeexwilld.'
p89
I1
sS'c.shih'
p90
I2
sS'hooq.'
p91
I1
sS'd.a.sutton'
p92
I6
sS'flaksb.'
p93
I3
sS'engl.'
p94
I136
sS'c.f.fang'
p95
I10
sS'hausskn.exasch.'
p96
I1
sS'r.haas'
p97
I1
sS'g.simpson'
p98
I7
sS'b.fern.casas'
p99
I1
sS'j.f.jimnez'
p100
I2
sS'appleq.'
p101
I1
sS'coss.exwillk.'
p102
I2
sS'steud.exjard.'
p103
I2
sS'm.s.trudgen'
p104
I1
sS'a.sav.'
p105
I1
sS'dahlst.'
p106
I39
sS'm.b.deng'
p107
I1
sS'j.pujadas'
p108
I2
sS'j.-f.leroy'
p109
I1
sS'mor.'
p110
I1
sS'm.simo'
p111
I1
sS'suvat.'
p112
I1
sS'lindb.'
p113
I1
sS'l.s.sm.'
p114
I2
sS'd.a.cooke'
p115
I7
sS'p.h.davis'
p116
I76
sS'o.ferrari'
p117
I1
sS'c.w.chang'
p118
I3
sS'c.y.wuexh.w.li'
p119
I2
sS'muozgarm.'
p120
I12
sS'less.'
p121
I6
sS'rodr.seijo'
p122
I1
sS'f.ritter'
p123
I61
sS't.p.yi'
p124
I1
sS'sond.'
p125
I33
sS'koso-pol.'
p126
I2
sS'petr.'
p127
I15
sS'e.royer'
p128
I1
sS'd.y.hong'
p129
I38
sS'bojerexhook.'
p130
I1
sS'em.schmid'
p131
I4
sS'j.b.gillett'
p132
I53
sS'sladk.'
p133
I1
sS'pourr.exdc.'
p134
I1
sS'r.d.hyam'
p135
I1
sS'h.h.iltis'
p136
I1
sS'hyl.exnordh.'
p137
I2
sS'e.laguna'
p138
I1
sS'nakaiexh.ito'
p139
I1
sS'av-lall.'
p140
I1
sS'veitchexmast.'
p141
I1
sS'r.l.taylor'
p142
I8
sS'brugg.'
p143
I1
sS'jacquem.excambess.'
p144
I1
sS'grushv.'
p145
I1
sS'd.e.benn.'
p146
I1
sS'c.b.wolf'
p147
I10
sS'hochr.'
p148
I24
sS'standl.'
p149
I126
sS'r.e.brooks'
p150
I1
sS'henr.'
p151
I4
sS'w.c.holmes'
p152
I1
sS'e.thomas'
p153
I1
sS'j.b.imlay'
p154
I1
sS'h.ohba'
p155
I20
sS'f.muell.exschltdl.'
p156
I1
sS'sasakiexkaneh.'
p157
I1
sS'c.y.chao'
p158
I1
sS's.schauer'
p159
I1
sS'dobrochot.'
p160
I1
sS'noot.'
p161
I28
sS'a.b.martins'
p162
I1
sS'f.white'
p163
I31
sS'h.j.veitch'
p164
I3
sS'b.fedtsch.expavl.'
p165
I1
sS'briq.exrech.f.'
p166
I1
sS'ger.l.sm.'
p167
I1
sS'j.e.adams'
p168
I2
sS'c.presl'
p169
I22
sS'mark.ackermann'
p170
I1
sS'l.f.sousa'
p171
I1
sS'l.e.newton'
p172
I3
sS'i.m.turner'
p173
I5
sS'takiz.'
p174
I2
sS'p.x.he'
p175
I1
sS'tckh.'
p176
I2
sS'a.st.-hil.exbenth.'
p177
I1
sS'h.i.schafer'
p178
I2
sS'urum.'
p179
I10
sS't.r.dudley'
p180
I6
sS'maxim.exherder'
p181
I1
sS'garcavall.'
p182
I1
sS'e.barnes'
p183
I1
sS'w.e.lawr.'
p184
I1
sS's.t.blake'
p185
I5
sS'cav.exspreng.'
p186
I1
sS'g.fisch.'
p187
I4
sS'j.lloyd'
p188
I1
sS'darl.'
p189
I1
sS'ledeb.exrchb.'
p190
I1
sS'n.d.simpson'
p191
I1
sS'h.koidz.ext.shimizu'
p192
I1
sS'desr.'
p193
I1
sS'm.j.costa'
p194
I2
sS'collen.'
p195
I1
sS'nicicexvelen.'
p196
I1
sS'lindl.'
p197
I80
sS'ehrh.'
p198
I9
sS"p.o'byrne"
p199
I2
sS'simk.'
p200
I1
sS'l.c.barnett'
p201
I1
sS'trautv.'
p202
I22
sS'e.z.bailey'
p203
I1
sS'c.blanch'
p204
I7
sS'willk.exmariz'
p205
I1
sS'm.a.diniz'
p206
I1
sS'h.luther'
p207
I3
sS'kearneyexrydb.'
p208
I1
sS'a.camusexruppert'
p209
I1
sS'starod.'
p210
I1
sS'p.m.sm.'
p211
I6
sS'h.scholz'
p212
I8
sS'm.sousa'
p213
I4
sS'backeb.exrogoz.'
p214
I1
sS'blank.'
p215
I2
sS'gontsch.'
p216
I2
sS'burch.'
p217
I6
sS'mack.'
p218
I7
sS'hook.f.exkirk'
p219
I1
sS'k.s.walter'
p220
I1
sS'k.kirkman'
p221
I1
sS'e.grant'
p222
I1
sS'a.rich.exdc.'
p223
I2
sS'g.m.schulze'
p224
I3
sS'j.m.coult.extoumey'
p225
I1
sS'r.w.krauss'
p226
I1
sS'cogn.'
p227
I31
sS'engelm.exa.dc.'
p228
I1
sS'bacig.'
p229
I6
sS'd.b.munro'
p230
I2
sS'vals.'
p231
I1
sS'hatus.ext.koyama'
p232
I1
sS'coss.exbriq.'
p233
I1
sS't.m.schust.'
p234
I1
sS'a.c.sanders'
p235
I11
sS'w.d.j.koch'
p236
I18
sS'p.k.chou'
p237
I6
sS'j.milde'
p238
I2
sS's.atkins'
p239
I4
sS'd.b.dunn'
p240
I32
sS'hodgs.'
p241
I1
sS'n.h.holmgren'
p242
I32
sS'vasud.nair'
p243
I1
sS'z.j.zong'
p244
I1
sS'p.v.heath'
p245
I1
sS'buserexsnd.'
p246
I1
sS'l.k.henry'
p247
I1
sS'edgew.'
p248
I7
sS'c.n.gon.'
p249
I1
sS'kk.exmatsum.'
p250
I1
sS'c.f.reed'
p251
I7
sS'x.r.he'
p252
I1
sS'wall.exmoq.'
p253
I1
sS's.k.srivast.'
p254
I1
sS'a.braunexhieron.'
p255
I1
sS'kurzexhook.f.'
p256
I1
sS'guagl.'
p257
I5
sS'k.herm'
p258
I1
sS'grev.'
p259
I1
sS'h.huber'
p260
I10
sS'f.o.wolf'
p261
I1
sS'a.st.-hil.'
p262
I7
sS'z.k.zhou'
p263
I2
sS's.k.chen'
p264
I9
sS'gmeznav.'
p265
I1
sS'scott-elliotexa.chev.'
p266
I1
sS'boiss.exklotzsch'
p267
I1
sS't.c.huang'
p268
I11
sS'wall.excraib'
p269
I1
sS'j.e.gut.'
p270
I1
sS'michx.exwilld.'
p271
I1
sS'hornem.exspreng.'
p272
I1
sS'j.b.phipps'
p273
I4
sS'c.h.perss.'
p274
I2
sS'o.lang'
p275
I2
sS'j.dvork'
p276
I1
sS'h.q.wen'
p277
I1
sS'pernh.'
p278
I2
sS'r.m.adams'
p279
I7
sS's.carter'
p280
I15
sS'wettst.'
p281
I11
sS'hautz.'
p282
I1
sS'w.h.lewis'
p283
I9
sS'bakh.'
p284
I2
sS'sosn.exgrossh.'
p285
I1
sS'p.ribeiro'
p286
I1
sS'norrl.'
p287
I4
sS'j.anthony'
p288
I7
sS'c.e.britton'
p289
I1
sS'ohwiext.shimizu'
p290
I1
sS'j.h.schaffn.'
p291
I1
sS'h.e.k.hartmann'
p292
I6
sS'mansf.'
p293
I2
sS't.b.chao'
p294
I2
sS'j.a.purpus'
p295
I4
sS'm.y.fang'
p296
I5
sS'e.domnguez'
p297
I2
sS's.kaur'
p298
I1
sS'waldst.'
p299
I16
sS'k.sun'
p300
I1
sS'd.jord.'
p301
I3
sS'kaulf.'
p302
I4
sS'e.morren'
p303
I7
sS'sennenexe.g.camus'
p304
I2
sS'b.fitzmaurice'
p305
I2
sS'ledeb.'
p306
I31
sS'j.murata'
p307
I10
sS'j.c.schmidtexrchb.f.'
p308
I1
sS's.k.wu'
p309
I3
sS'c.t.ting'
p310
I1
sS'hassl.exmattick'
p311
I1
sS's.m.almeida'
p312
I1
sS'suess.'
p313
I9
sS'wehrh.'
p314
I1
sS'kit.exwilld.'
p315
I3
sS'conardexl.h.bailey'
p316
I1
sS'wall.exbenth.'
p317
I3
sS'j.l.ellis'
p318
I1
sS'f.muell.exmiq.'
p319
I1
sS'j.t.kartesz'
p320
I2
sS'barb.-boiss.'
p321
I1
sS'v.l.harmsexsemple'
p322
I1
sS'a.kern.'
p323
I37
sS'tascher.'
p324
I4
sS'vent.'
p325
I3
sS'd.j.keil'
p326
I34
sS'c.y.wu'
p327
I82
sS'w.sauer'
p328
I1
sS'm.yusof'
p329
I1
sS's.andrews'
p330
I4
sS'r.br.'
p331
I35
sS'k.e.morris'
p332
I1
sS'oerst.'
p333
I6
sS'boerl.'
p334
I2
sS'l.e.mckinney'
p335
I6
sS'h.baumann'
p336
I57
sS'boiss.exnyr'
p337
I1
sS'g.brckn.'
p338
I1
sS'j.a.christian'
p339
I2
sS'hyl.exp.w.ball'
p340
I1
sS'r.o.williamsexr.o.williams'
p341
I1
sS'x.c.shi'
p342
I1
sS'b.baumann'
p343
I19
sS'liebm.exmart.'
p344
I1
sS'k.p.bell'
p345
I1
sS'w.p.fang'
p346
I19
sS'reut.exmaw'
p347
I1
sS'papch.'
p348
I3
sS'bernh.exrchb.'
p349
I4
sS'x.k.wen'
p350
I1
sS'w.a.fitzmaur.'
p351
I2
sS'g.watt'
p352
I1
sS'arn.exdc.'
p353
I2
sS'e.peter'
p354
I10
sS'j.c.manning'
p355
I20
sS'w.boott'
p356
I2
sS'schltr.'
p357
I75
sS'jiny.chen'
p358
I3
sS'ostenf.'
p359
I5
sS'boiss.exfreyn'
p360
I1
sS'k.h.walther'
p361
I2
sS'k.mal'
p362
I23
sS'j.roberts'
p363
I1
sS'j.groves'
p364
I1
sS'r.m.dutta'
p365
I2
sS'j.macbr.'
p366
I1
sS'f.ballard'
p367
I1
sS'rothr.'
p368
I1
sS'd.z.li'
p369
I3
sS'j.l.wu'
p370
I1
sS'ehr.bayer'
p371
I8
sS'p.c.tsoong'
p372
I4
sS'jord.exboreau'
p373
I1
sS'j.bausch'
p374
I1
sS'p.d.cantino'
p375
I1
sS'douglasexhook.'
p376
I4
sS't.m.barkley'
p377
I12
sS'd.c.thomas'
p378
I1
sS'm.vilm.exbois'
p379
I1
sS'e.f.guim.'
p380
I1
sS'm.k.alam'
p381
I1
sS'knobl.'
p382
I3
sS'a.segura'
p383
I2
sS'f.t.wang'
p384
I18
sS'dobrocz.'
p385
I1
sS'alef.'
p386
I3
sS'e.mayer'
p387
I4
sS'w.j.schrenk'
p388
I2
sS'y.q.liu'
p389
I1
sS'x.l.chen'
p390
I2
sS'j.rmy'
p391
I1
sS'macfarl.'
p392
I4
sS'y.c.chu'
p393
I1
sS'barb.rodr.exchodat'
p394
I1
sS'aug.r.paul'
p395
I1
sS'r.h.shan'
p396
I3
sS'drfl.'
p397
I10
sS'h.b.cui'
p398
I10
sS'w.blum'
p399
I1
sS'n.e.br.'
p400
I77
sS'mart.exchoisy'
p401
I1
sS'kingexr.parker'
p402
I1
sS'h.c.prentice'
p403
I1
sS'f.w.schultz'
p404
I14
sS'j.w.grimes'
p405
I19
sS'h.l.li'
p406
I37
sS'sm.'
p407
I33
sS'a.h.liogier'
p408
I3
sS'c.valente'
p409
I1
sS'eb.scholz'
p410
I1
sS'd.legrand'
p411
I14
sS's.w.edwards'
p412
I1
sS'e.pritz.'
p413
I6
sS'k.r.thiele'
p414
I2
sS'wikstr.'
p415
I1
sS'a.kern.exasch.'
p416
I1
sS'anzal.'
p417
I1
sS'peyr.'
p418
I1
sS'r.m.tryon'
p419
I6
sS'a.e.porsild'
p420
I10
sS'j.l.gentry'
p421
I1
sS'w.c.ko'
p422
I2
sS's.h.tang'
p423
I1
sS'a.kern.exmazzetti'
p424
I1
sS'w.t.lee'
p425
I1
sS'r.foster'
p426
I1
sS'p.d.srensen'
p427
I3
sS'w.lodd.'
p428
I1
sS'hoffmanns.'
p429
I11
sS't.g.walker'
p430
I3
sS's.br.'
p431
I1
sS'gatt.'
p432
I1
sS'lingelsh.'
p433
I6
sS'juss.exdc.'
p434
I1
sS'winkl.'
p435
I1
sS'e.p.santos'
p436
I1
sS'j.w.zetterst.'
p437
I1
sS'panar.exhalda'
p438
I1
sS'strachanexfawc.'
p439
I1
sS'niederl.exhieron.'
p440
I1
sS'popovexpojark.'
p441
I1
sS'n.m.pritch.'
p442
I3
sS'panar.'
p443
I2
sS'm.w.chase'
p444
I31
sS'j.r.edm.'
p445
I14
sS'goodd.'
p446
I1
sS'willd.exronniger'
p447
I1
sS'a.alibertis'
p448
I4
sS'c.ezcurra'
p449
I2
sS'e.schiem.'
p450
I1
sS'w.r.carter'
p451
I1
sS'e.mey.exa.dc.'
p452
I2
sS'n.sauer'
p453
I1
sS'skottsb.'
p454
I14
sS'neesexsteud.'
p455
I2
sS'hayataexyamam.'
p456
I1
sS'r.w.hartm.'
p457
I1
sS'waterf.'
p458
I9
sS'r.mora'
p459
I1
sS'w.e.evans'
p460
I2
sS'a.e.hoffm.'
p461
I3
sS'm.b.bayer'
p462
I93
sS'e.g.camus'
p463
I49
sS'd.y.chen'
p464
I1
sS'pall.exdc.'
p465
I1
sS'kit.exschult.'
p466
I1
sS'b.j.pienaar'
p467
I1
sS'r.uechtr.'
p468
I9
sS'w.c.wilson'
p469
I1
sS'gyerexjv.'
p470
I1
sS's.r.yadav'
p471
I3
sS'd.a.keith"'
p472
I1
sS'pilg.'
p473
I15
sS'chingj.wang'
p474
I1
sS'steud.exa.rich.'
p475
I1
sS'schindl.'
p476
I15
sS'r.j.atkins'
p477
I1
sS'z.y.chu'
p478
I1
sS'j.l.yang'
p479
I1
sS's.r.m.susilarani'
p480
I2
sS'h.schottexroem.'
p481
I1
sS'fedor.'
p482
I3
sS'j.a.thomson'
p483
I1
sS'c.a.lckh.'
p484
I4
sS'm.sugim.'
p485
I1
sS'chenev.'
p486
I1
sS'k.m.fengexc.y.wu'
p487
I1
sS'j.b.frst.'
p488
I1
sS'pall.exwilld.'
p489
I1
sS'c.y.yang'
p490
I3
sS'j.forbes'
p491
I1
sS'j.m.watson'
p492
I2
sS's.watsonexwheelock'
p493
I1
sS'viciosoexrivasmart.'
p494
I1
sS'.lemoine'
p495
I1
sS'k.s.edwards'
p496
I3
sS'guss.'
p497
I41
sS'hook.exchoisy'
p498
I1
sS'rostk.exwilld.'
p499
I1
sS'l.p.queiroz'
p500
I2
sS'p.monts.'
p501
I7
sS'tineoexengelm.'
p502
I1
sS'a.o.simes'
p503
I1
sS'ridl.exkerr'
p504
I1
sS'n.yonez.'
p505
I1
sS'g.halliday'
p506
I2
sS'soltok.'
p507
I1
sS'j.r.i.wood'
p508
I32
sS'lapeyr.'
p509
I5
sS'a.s.george'
p510
I61
sS't.t.chen'
p511
I1
sS'a.kern.exhayek'
p512
I1
sS's.x.yang'
p513
I5
sS'heinr.braun'
p514
I1
sS'rutish.'
p515
I1
sS'desjat.-shost.'
p516
I1
sS'l.c.wang'
p517
I1
sS'judz.'
p518
I1
sS'g.s.mill.'
p519
I1
sS'willk.exherv.'
p520
I1
sS'e.k.cameron'
p521
I2
sS'n.h.f.desp.'
p522
I3
sS't.j.watson'
p523
I1
sS'med.-costa'
p524
I1
sS'greeneexj.f.macbr.'
p525
I1
sS'roshev.'
p526
I5
sS'feddeexh.lv.'
p527
I1
sS'o.j.hansen'
p528
I5
sS'f.m.bailey'
p529
I16
sS'h.ohashi'
p530
I72
sS'welw.'
p531
I4
sS'gilib.'
p532
I1
sS'g.h.loos'
p533
I1
sS't.sugaw.'
p534
I6
sS'k.c.sahni'
p535
I1
sS'g.klotz'
p536
I4
sS'j.l.stewart'
p537
I2
sS'w.p.teschner'
p538
I1
sS'k.schum.exvaupel'
p539
I1
sS'y.r.li'
p540
I3
sS'e.f.linton'
p541
I2
sS'r.f.dicht'
p542
I1
sS'weinm.'
p543
I1
sS'r.morales'
p544
I17
sS'p.a.smirn.'
p545
I2
sS'w.j.baker'
p546
I1
sS'h.b.naithani'
p547
I3
sS'h.p.chandler'
p548
I1
sS'm.salas'
p549
I1
sS'l.g.lei'
p550
I1
sS'k.k.khanna'
p551
I1
sS'zhix.chen'
p552
I3
sS'h.lindb.'
p553
I15
sS'h.ikeda'
p554
I2
sS'nakaiexh.koidz.'
p555
I1
sS'sternerexhyl.'
p556
I1
sS'rzed.'
p557
I2
sS'j.anderson'
p558
I1
sS'f.j.herm.exwadmond'
p559
I1
sS'a.delgado'
p560
I1
sS'kimp.'
p561
I1
sS'w.becker'
p562
I9
sS'j.e.arnold'
p563
I1
sS'bong.exledeb.'
p564
I1
sS'a.terracc.'
p565
I4
sS'o.gerbaud'
p566
I8
sS'p.beauv.'
p567
I3
sS's.y.liang'
p568
I3
sS'm.c.johnst.'
p569
I23
sS'r.vig.'
p570
I12
sS's.f.sm.'
p571
I1
sS'sudw.'
p572
I5
sS'lodd.exloudon'
p573
I2
sS'ghesq.excavaco'
p574
I2
sS'a.grayexa.gray'
p575
I2
sS'p.fourn.'
p576
I40
sS'l.gusman'
p577
I1
sS't.v.egorova'
p578
I15
sS's.matsumoto'
p579
I1
sS'j.t.waterh.'
p580
I1
sS'j.kost.'
p581
I12
sS'p.g.sm.'
p582
I1
sS'c.r.gunn'
p583
I3
sS'bech.'
p584
I1
sS'l.t.lu'
p585
I30
sS'n.p.barker'
p586
I2
sS'h.p.gurin'
p587
I1
sS'p.li'
p588
I1
sS'p.watson'
p589
I3
sS't.c.kao'
p590
I1
sS'g.thijsse'
p591
I2
sS'glaz.exdrude'
p592
I2
sS'c.e.wood'
p593
I2
sS't.n.popova'
p594
I2
sS'f.w.taylorextrel.'
p595
I1
sS'welw.exm.a.lawson'
p596
I2
sS'duchass.'
p597
I1
sS'prob.'
p598
I17
sS'fern.gonz.'
p599
I4
sS's.h.fu'
p600
I11
sS'h.groves'
p601
I2
sS'robbr.'
p602
I25
sS'trel.'
p603
I54
sS'r.cotton'
p604
I2
sS'w.j.dewilde'
p605
I23
sS'franch.exmaxim.'
p606
I2
sS'j.palmer'
p607
I1
sS'b.mathew'
p608
I34
sS'f.wimm.'
p609
I1
sS'radlk.'
p610
I11
sS'l.y.sun'
p611
I1
sS'becc.exhook.f.'
p612
I1
sS'f.towns.'
p613
I4
sS'm.brandt'
p614
I3
sS'l.ibarra'
p615
I1
sS'riccob.'
p616
I1
sS'engelm.exgreenm.'
p617
I1
sS'l.rico'
p618
I2
sS'cout.'
p619
I21
sS'x.y.zhuexz.wei'
p620
I2
sS'naruh.'
p621
I2
sS'laest.exfr.'
p622
I1
sS'y.n.lee'
p623
I4
sS'p.halliday'
p624
I1
sS'c.k.allen'
p625
I5
sS'willd.exspreng.'
p626
I2
sS'ganesch.'
p627
I1
sS'hieron.exbrause'
p628
I1
sS'trel.excurran'
p629
I1
sS'koidz.'
p630
I57
sS'berteroexhegelm.'
p631
I1
sS'j.m.macoun'
p632
I1
sS'durandextorr.'
p633
I1
sS'r.kiesling'
p634
I8
sS'o.schwartz'
p635
I2
sS'hausskn.exberthold'
p636
I1
sS'g.f.w.mey.'
p637
I1
sS's.k.lee'
p638
I3
sS'sint.exboiss.'
p639
I1
sS's.y.pao'
p640
I1
sS'kanisexj.palmer'
p641
I1
sS'o.huber'
p642
I1
sS'c.g.shawbis'
p643
I1
sS'm.e.jon'
p644
I1
sS'z.l.dai'
p645
I1
sS'hildebr.'
p646
I1
sS'sloss.'
p647
I1
sS'j.r.drumm.'
p648
I1
sS'd.k.bailey'
p649
I2
sS'hayas.'
p650
I2
sS'm.e.endress'
p651
I2
sS'b.l.burtt'
p652
I18
sS'r.j.mastrog.'
p653
I1
sS'j.c.zhang'
p654
I1
sS'thomasexsternb.'
p655
I1
sS'czerep.'
p656
I4
sS'pit.'
p657
I16
sS't.g.white'
p658
I4
sS'roxb.'
p659
I15
sS's.g.m.carr'
p660
I1
sS's.l.mo'
p661
I2
sS'houtt.'
p662
I1
sS'r.e.cooper'
p663
I2
sS'h.p.linder'
p664
I22
sS'd.yu'
p665
I1
sS'popl.'
p666
I1
sS'i.bock'
p667
I2
sS'lehm.'
p668
I13
sS'rouyexe.g.camus'
p669
I1
sS'c.n.page'
p670
I1
sS'x.x.kong'
p671
I1
sS'fisch.exspreng.'
p672
I2
sS'sch.bip.exc.koch'
p673
I1
sS'flggexschrad.'
p674
I1
sS'i.d.lund'
p675
I1
sS's.lee'
p676
I2
sS'a.a.eaton'
p677
I3
sS'sch.bip.exwillk.'
p678
I1
sS'l.j.davenp.'
p679
I2
sS'shuttlew.exsmall'
p680
I1
sS'roch.'
p681
I1
sS'jaub.'
p682
I5
sS'spruceexo.berg'
p683
I1
sS'b.l.rob.'
p684
I51
sS'pilg.exgilg'
p685
I1
sS'v.gibbsexbean'
p686
I1
sS't.georgiev'
p687
I9
sS'm.bernal'
p688
I6
sS'h.m.l.forbes'
p689
I2
sS'pamp.'
p690
I20
sS'schousb.'
p691
I1
sS'haageexpfeiff.'
p692
I1
sS'a.c.white'
p693
I1
sS'm.f.silva'
p694
I10
sS'w.y.chen'
p695
I1
sS'h.kretzschmar'
p696
I36
sS'k.l.chambers'
p697
I11
sS'franch.exd.brndz?'
p698
I1
sS'p.e.mcguire'
p699
I1
sS'm.v.agab.'
p700
I1
sS't.l.wu'
p701
I2
sS'dewild.'
p702
I88
sS'w.h.barrett'
p703
I2
sS'a.cunn.'
p704
I9
sS'e.s.marshall'
p705
I1
sS'auct.'
p706
I7
sS'a.d.hall'
p707
I2
sS'goudsw.'
p708
I1
sS's.stokesexabrams'
p709
I1
sS'm.y.he'
p710
I2
sS'lechl.'
p711
I1
sS'milne-redh.'
p712
I10
sS's.c.yueh'
p713
I1
sS'h.fleischm.'
p714
I6
sS'c.e.jarvis'
p715
I1
sS'kothe-heinr.'
p716
I5
sS'giacom.'
p717
I4
sS'y.c.hsu'
p718
I5
sS'osborn.'
p719
I1
sS'h.haraexh.ohba'
p720
I1
sS'j.a.mcdonald'
p721
I4
sS'o.appel'
p722
I4
sS'k.g.uzunova'
p723
I1
sS'mart.exmoq.'
p724
I1
sS'e.o.beal'
p725
I1
sS'l.watson'
p726
I1
sS'p.vargas'
p727
I4
sS'heldr.exgu?ul.'
p728
I1
sS'f.y.liu'
p729
I1
sS'herderexmaxim.'
p730
I1
sS'roseexboed.'
p731
I1
sS'n.fujita'
p732
I2
sS'arv.-touv.'
p733
I333
sS'b.l.rob.exb.l.rob.'
p734
I1
sS'wall.exdc.'
p735
I1
sS'davidw.taylor'
p736
I3
sS'tuck.'
p737
I1
sS'heldr.exguss.'
p738
I1
sS't.yukawa'
p739
I2
sS'tamam.'
p740
I1
sS'chass.'
p741
I1
sS'i.garca'
p742
I5
sS'j.a.molinaabril'
p743
I1
sS'poelln.'
p744
I45
sS's.n.lim'
p745
I2
sS'm.sharma'
p746
I2
sS'sczep.'
p747
I1
sS'schrenkexfisch.'
p748
I1
sS'rodr.-flores'
p749
I1
sS'stoj.'
p750
I23
sS'nutt.exd.c.eaton'
p751
I1
sS'caball.'
p752
I1
sS'd.d.keck'
p753
I55
sS'goetgh.'
p754
I2
sS'delileexspreng.'
p755
I1
sS'b.d.morley'
p756
I4
sS'fr.'
p757
I45
sS'a.benn.'
p758
I8
sS'nakai.'
p759
I1
sS'l.v.orlova'
p760
I1
sS'e.mey.exharv.'
p761
I2
sS'l.e.bishop'
p762
I1
sS'f.muell.exbenth.'
p763
I5
sS'n.d.atwood'
p764
I4
sS'engelm.exhemsl.'
p765
I1
sS'binojk.'
p766
I1
sS'j.stewart'
p767
I1
sS'y.kimura'
p768
I10
sS'h.keng'
p769
I4
sS'v.e.avet.'
p770
I1
sS's.r.paul'
p771
I1
sS'p.daniel'
p772
I1
sS'e.s.anderson'
p773
I4
sS'v.d.dmitriev'
p774
I1
sS'g.nieto'
p775
I1
sS'y?ld.'
p776
I1
sS'c.ipeng'
p777
I6
sS'w.c.chengexc.chen'
p778
I1
sS'benth.exc.b.clarke'
p779
I1
sS'h.e.hess'
p780
I2
sS'sennenexa.camus'
p781
I1
sS'm.hotta'
p782
I5
sS'salzm.exdunal'
p783
I1
sS'm.fernndezzeq.'
p784
I10
sS'rochelexrchb.'
p785
I1
sS'l.martins'
p786
I3
sS'mabb.'
p787
I10
sS'maxim.'
p788
I74
sS'q.p.sinnott'
p789
I2
sS'k.koch'
p790
I42
sS'b.l.johnson'
p791
I1
sS'm.a.lawson'
p792
I1
sS'f.muell.exvesque'
p793
I1
sS'd.lve'
p794
I34
sS'm.hirth'
p795
I1
sS'd.j.crawford'
p796
I1
sS'j.lonard'
p797
I14
sS'p.s.wang'
p798
I2
sS'strasb.'
p799
I1
sS'c.a.mull.'
p800
I1
sS'w.j.yang'
p801
I1
sS'o.fedtsch.'
p802
I2
sS'j.t.howell'
p803
I29
sS's.j.chen'
p804
I1
sS'louisexr.wilczek'
p805
I1
sS'brot.'
p806
I8
sS'c.b.shang'
p807
I1
sS'c.e.hubb.'
p808
I4
sS'k.m.nakai'
p809
I5
sS'jancz.'
p810
I9
sS'c.bernard'
p811
I3
sS'f.a.bauer'
p812
I1
sS'g.d.carr'
p813
I7
sS'kalop.'
p814
I1
sS'sleum.'
p815
I1
sS'snchez-cux.'
p816
I2
sS'gand.exbernis'
p817
I1
sS'w.till'
p818
I1
sS's.h.wright'
p819
I1
sS'lindl.exloudon'
p820
I1
sS'pourr.exlapeyr.'
p821
I1
sS'zeyh.exhiern'
p822
I1
sS'willd.exbenth.'
p823
I1
sS'e.klein'
p824
I4
sS'kuprian.'
p825
I1
sS'taub.exengl.'
p826
I2
sS'p.s.hsu'
p827
I12
sS'boed.'
p828
I9
sS'guill.'
p829
I1
sS'h.turner'
p830
I1
sS'e.l.wolf'
p831
I1
sS'q.q.zhang'
p832
I1
sS'c.norman'
p833
I1
sS'g.d.rowley'
p834
I34
sS'lincz.'
p835
I2
sS'boottexfranch.'
p836
I1
sS'n.pearce'
p837
I2
sS'reyn.'
p838
I1
sS'h.sharsm.'
p839
I1
sS'o.tllez'
p840
I1
sS'ginzb.'
p841
I3
sS'lipsch.'
p842
I3
sS'w.c.chen'
p843
I2
sS'sirj.'
p844
I19
sS'coss.exbatt.'
p845
I4
sS'bojerexmast.'
p846
I1
sS'zalewska-ga?.'
p847
I3
sS'j.m.egger'
p848
I10
sS'sudw.extrel.'
p849
I1
sS'j.ullmann'
p850
I2
sS's.j.pei'
p851
I1
sS'k.werner'
p852
I4
sS'y.c.zhong'
p853
I1
sS't.m.c.taylor'
p854
I1
sS'kitam.exhara'
p855
I1
sS't.erikss.'
p856
I2
sS'zabelexc.k.schneid.'
p857
I1
sS'hallierf.'
p858
I7
sS't.e.daz'
p859
I3
sS'w.s.alverson'
p860
I1
sS'r.e.fr.'
p861
I22
sS'w.wirth'
p862
I1
sS'weim.'
p863
I12
sS'j.c.hickman'
p864
I4
sS'k.e.hols.'
p865
I1
sS'm.r.almeida'
p866
I4
sS'j.v.schneid.'
p867
I1
sS'p.j.edwards'
p868
I1
sS'palib.'
p869
I3
sS'lass.'
p870
I2
sS'kharkev.'
p871
I1
sS'rupr.'
p872
I23
sS'l.shi'
p873
I3
sS'f.h.chen'
p874
I16
sS'l.e.mora'
p875
I6
sS'y.f.yu'
p876
I1
sS'feath.'
p877
I2
sS'hern.-valencia'
p878
I1
sS'j.g.ortega'
p879
I1
sS's.brut.'
p880
I10
sS'l.hmet-ahti'
p881
I1
sS'g.g.sm.'
p882
I18
sS'thwaitesexhook.f.'
p883
I1
sS'b.j.cox'
p884
I11
sS'y.s.wu'
p885
I2
sS'r.bernal'
p886
I3
sS'leyss.'
p887
I1
sS'm.r.lewis'
p888
I10
sS's.q.zhou'
p889
I1
sS'boenn.'
p890
I1
sS'c.r.p.andrews'
p891
I1
sS's.a.giardina'
p892
I1
sS'burnatexbriq.'
p893
I1
sS'v.l.bailey'
p894
I8
sS'weath.exsvenson'
p895
I1
sS'henriq.'
p896
I2
sS'p.jrg.'
p897
I1
sS'g.kellerexh.wettst.'
p898
I1
sS'sav.'
p899
I21
sS'a.v.petrova'
p900
I1
sS'welw.exoliv.'
p901
I4
sS'krasch.'
p902
I3
sS'schottexroem.'
p903
I1
sS'janch.'
p904
I5
sS'berteroexspreng.'
p905
I1
sS'trin.'
p906
I3
sS'cedeo-mald.'
p907
I1
sS'p.g.neish'
p908
I1
sS'j.serres'
p909
I1
sS'w.e.manningexsteenis'
p910
I1
sS'sumnev.'
p911
I1
sS'k.w.dorman'
p912
I1
sS'm.prins'
p913
I1
sS'litard.'
p914
I10
sS'balf.'
p915
I1
sS'saut.'
p916
I1
sS'e.rico'
p917
I3
sS'bol.'
p918
I1
sS'fed.exgreuter'
p919
I1
sS'h.a.pedersen'
p920
I20
sS'a.kern.exborbs'
p921
I2
sS't.nakam.'
p922
I1
sS'kunthexdc.'
p923
I1
sS'less.exgriseb.'
p924
I1
sS'm.l.greenexdress'
p925
I1
sS'r.p.st.john'
p926
I2
sS'bewer.'
p927
I1
sS'j.k.morton'
p928
I11
sS'j.prudhomme'
p929
I1
sS'ldb.'
p930
I1
sS'c.pei'
p931
I3
sS'h.perrierexpichon'
p932
I1
sS'b.v.shetty'
p933
I2
sS'y.liu'
p934
I1
sS'c.morren'
p935
I5
sS'p.e.berry'
p936
I11
sS's.b.heard'
p937
I2
sS'less.exkunth'
p938
I1
sS'w.fitzg.'
p939
I9
sS'griseb.'
p940
I94
sS'w.lohmeyer'
p941
I1
sS'yanagih.'
p942
I1
sS's.p.lei'
p943
I2
sS'douglasexg.don'
p944
I1
sS'k.inoue'
p945
I5
sS'y.luo'
p946
I2
sS'j.m.fay'
p947
I1
sS'spreng.exjuz.'
p948
I1
sS'j.q.fu'
p949
I1
sS'w.c.shieh'
p950
I5
sS'd.b.du'
p951
I1
sS'send.'
p952
I1
sS'j.g.sm.'
p953
I2
sS'j.y.liang'
p954
I1
sS'm.white'
p955
I1
sS'zaik.'
p956
I4
sS'hassl.'
p957
I31
sS'b.peterson'
p958
I2
sS's.z.huang'
p959
I1
sS'y.x.ling'
p960
I2
sS'brb.'
p961
I1
sS'n.e.hansenexkoehne'
p962
I1
sS'd.zohary'
p963
I4
sS'd.w.stev.'
p964
I1
sS'petchl.'
p965
I3
sS'd.donexw.h.baxter'
p966
I1
sS'fern.-carv.'
p967
I3
sS'g.f.atk.'
p968
I1
sS'lemoineexl.henry'
p969
I1
sS't.n.ho'
p970
I51
sS'makinoext.koyama'
p971
I1
sS'h.t.zhang'
p972
I2
sS'e.h.wilson'
p973
I51
sS'ittenb.'
p974
I1
sS'g.r.campb.'
p975
I2
sS'm.gmez'
p976
I2
sS'j.d.mastrog.'
p977
I1
sS'verd.'
p978
I8
sS'j.leon'
p979
I1
sS'k.f.wu'
p980
I2
sS'mart.exdrude'
p981
I2
sS'j.c.liao'
p982
I3
sS'maxim.exregel'
p983
I1
sS'gaut.'
p984
I101
sS'r.d.webster'
p985
I1
sS'h.dekker'
p986
I1
sS'i.c.chung'
p987
I1
sS'j.pardo'
p988
I1
sS'm.l.mend.'
p989
I1
sS'viv.'
p990
I9
sS'des.-shost.'
p991
I4
sS's.garg'
p992
I1
sS'welw.exc.b.clarke'
p993
I1
sS'hochst.exa.rich.'
p994
I5
sS'h.s.lo'
p995
I3
sS'beissn.'
p996
I2
sS'z.x.yua'
p997
I1
sS'mora-ret.exc.o.morales'
p998
I1
sS'roem.'
p999
I6
sS'costaexwillk.'
p1000
I1
sS'b.eriksen'
p1001
I1
sS'm.taylor'
p1002
I1
sS'c.c.gmel.'
p1003
I1
sS'vaneselt.'
p1004
I1
sS'c.l.chen'
p1005
I1
sS'fontquerexo.bols'
p1006
I1
sS'welw.exhiern.'
p1007
I1
sS'l.gross'
p1008
I1
sS'waisb.'
p1009
I3
sS'z.yuli'
p1010
I6
sS'willd.exkuhn'
p1011
I1
sS'e.s.burgess'
p1012
I1
sS'j.compton'
p1013
I5
sS'ceyn.-gield'
p1014
I1
sS's.kuros.'
p1015
I2
sS'hort.explanch.'
p1016
I1
sS'w.t.aiton'
p1017
I1
sS'v.boillat'
p1018
I1
sS'c.p.sm.'
p1019
I34
sS'wall.exwight'
p1020
I2
sS'vuilleum.'
p1021
I1
sS'h.hara'
p1022
I74
sS'blancheexboiss.'
p1023
I2
sS'blackst.'
p1024
I1
sS'm.l.sheh'
p1025
I7
sS'd.l.jones'
p1026
I10
sS'h.duman'
p1027
I2
sS'willd.exschkuhr'
p1028
I1
sS'hochst.exsteud.'
p1029
I2
sS'engelm.exrmpler'
p1030
I1
sS'r.j.little'
p1031
I5
sS'swanev.'
p1032
I1
sS'q.e.yang'
p1033
I10
sS's.watson'
p1034
I114
sS'decne.'
p1035
I25
sS'a.a.ansari'
p1036
I1
sS'r.j.henderson'
p1037
I1
sS'h.lev.'
p1038
I2
sS'o.muizexa.barreto'
p1039
I1
sS'c.l.boynton'
p1040
I2
sS'weath.'
p1041
I21
sS'racib.exwycicki'
p1042
I1
sS'y.s.chen'
p1043
I8
sS'poepp.'
p1044
I4
sS'j.leonard'
p1045
I7
sS'kuth.'
p1046
I1
sS'parr-sm.'
p1047
I3
sS'brongn.'
p1048
I4
sS'c.w.ham.'
p1049
I3
sS's.z.yan'
p1050
I1
sS'a.tronc.'
p1051
I1
sS'm.r.hend.'
p1052
I3
sS'h.pearson'
p1053
I3
sS'wief.exr.m.bateman'
p1054
I1
sS'f.m.saad'
p1055
I1
sS'p.p."'
p1056
I1
sS'c.ros'
p1057
I1
sS'a.a.heller'
p1058
I1
sS'd.t.e.ploeg'
p1059
I1
sS'q.r.lai'
p1060
I1
sS'u.mll.-doblies'
p1061
I11
sS'emb.exmaire'
p1062
I1
sS'c.kohler'
p1063
I1
sS't.j.feng'
p1064
I1
sS'd.h.kent'
p1065
I4
sS'a.m.molina'
p1066
I1
sS'hausm.'
p1067
I3
sS'm.a.blanco'
p1068
I2
sS'pic.serm.'
p1069
I5
sS'hodgkinexc.d.brickell'
p1070
I1
sS'bremek.'
p1071
I35
sS'l.k.ling'
p1072
I2
sS'hort.'
p1073
I3
sS'joch.mll.'
p1074
I6
sS'j.j.verm.'
p1075
I30
sS'soexp.w.ball'
p1076
I1
sS'schnl.'
p1077
I18
sS'f.a.c.weber'
p1078
I9
sS'kruckeb.'
p1079
I3
sS'b.ghosh'
p1080
I2
sS'pell.'
p1081
I1
sS'baumg.'
p1082
I3
sS'j.gayexboiss.'
p1083
I1
sS'd.c.mcclint.'
p1084
I4
sS'w.h.duncan'
p1085
I1
sS'g.gerlach'
p1086
I1
sS'c.h.kim'
p1087
I1
sS'k.a.beck'
p1088
I1
sS'j.p.tracyexjeps.'
p1089
I1
sS'desc.'
p1090
I2
sS'j.w.dawson'
p1091
I7
sS'a.l.grant'
p1092
I15
sS'f.wirtgen'
p1093
I1
sS'w.jacobsen'
p1094
I1
sS'cristof.'
p1095
I4
sS'f.w.case'
p1096
I1
sS'w.kittr.'
p1097
I1
sS'sch.bip.exs.f.blake'
p1098
I2
sS'sint.expax'
p1099
I1
sS'p.kpfer'
p1100
I2
sS'f.wen'
p1101
I1
sS'paw?.'
p1102
I6
sS'minut.'
p1103
I1
sS'd.j.n.hind'
p1104
I3
sS'jayaw.'
p1105
I1
sS'j.x.huang'
p1106
I1
sS'a.m.johnson'
p1107
I3
sS'v.i.krecz.ext.v.egorova'
p1108
I1
sS'h.koyama'
p1109
I22
sS'a.juss.'
p1110
I10
sS'donn.-morg.'
p1111
I1
sS'avet.'
p1112
I1
sS'l.b.guo'
p1113
I1
sS'delaramb.'
p1114
I1
sS'hungt.chang'
p1115
I13
sS'rydb.exsmall'
p1116
I1
sS'hatus.'
p1117
I12
sS'e.pereira'
p1118
I4
sS'n.pfeiff.'
p1119
I1
sS'schreb.'
p1120
I5
sS'darbysh.'
p1121
I3
sS'g.c.munro'
p1122
I1
sS'soul.-bod.'
p1123
I1
sS'c.c.hsu'
p1124
I1
sS'z.h.lu'
p1125
I1
sS'pojark.'
p1126
I23
sS'b.e.pfeil'
p1127
I1
sS'eug.ott'
p1128
I1
sS'j.z.shao'
p1129
I1
sS'p.i.forst.'
p1130
I8
sS'tavorm.'
p1131
I1
sS'a.galn'
p1132
I1
sS'o.j.blanch.'
p1133
I4
sS'jahand.'
p1134
I8
sS's.ros'
p1135
I1
sS'reynekeexj.c.manning'
p1136
I1
sS'hosok.'
p1137
I5
sS't.f.daniel'
p1138
I3
sS'r.a.dyer'
p1139
I7
sS'j.m.h.shaw'
p1140
I29
sS'casp.'
p1141
I1
sS'g.l.webster'
p1142
I35
sS'c.d.chu'
p1143
I2
sS'sugim.exnaruh.'
p1144
I1
sS'voggenr.exbaares'
p1145
I1
sS'i.hagemann'
p1146
I2
sS'boriss.'
p1147
I2
sS'w.w.sm.exdandy'
p1148
I1
sS'c.l.scott'
p1149
I7
sS'v.singh'
p1150
I6
sS'g.singh'
p1151
I3
sS'b.a.lewis'
p1152
I1
sS'b.g.schub.'
p1153
I29
sS'h.nordensk.'
p1154
I1
sS'p.f.hunt'
p1155
I11
sS'g.kellerexb.tyteca'
p1156
I1
sS'c.m.rogers'
p1157
I5
sS'shrensexk.schum.'
p1158
I1
sS'p.pierce'
p1159
I1
sS'jv.'
p1160
I18
sS'wall.exc.b.clarke'
p1161
I2
sS'a.w.benn.'
p1162
I2
sS'froel.'
p1163
I6
sS'd.velasquez'
p1164
I1
sS'vict.'
p1165
I2
sS'heldr.exboiss.'
p1166
I4
sS'zapa?.'
p1167
I6
sS'ehrenb.'
p1168
I3
sS'c.a.mey.exschmidt'
p1169
I1
sS'j.t.pereira'
p1170
I1
sS'c.e.chang'
p1171
I1
sS's.g.sm.'
p1172
I8
sS'boscexvent.'
p1173
I1
sS'krn.'
p1174
I15
sS'nagam.'
p1175
I1
sS'lam.expoir.'
p1176
I1
sS'merr.exkobuski'
p1177
I1
sS't.duncan'
p1178
I2
sS'j.t.williams'
p1179
I2
sS'g.foelsche'
p1180
I2
sS'o.e.ulbr.'
p1181
I1
sS'o.erikss.'
p1182
I1
sS'melzh.'
p1183
I4
sS'v.s.raju'
p1184
I1
sS'h.spaeth'
p1185
I1
sS'c.l.lim'
p1186
I5
sS'p.graebn.'
p1187
I2
sS'd.f.brunt.'
p1188
I1
sS'y.x.liou'
p1189
I4
sS'n.a.wakef.'
p1190
I2
sS'a.cunn.exr.br.'
p1191
I1
sS'a.f.mello'
p1192
I4
sS'l.d.duan'
p1193
I1
sS'l.sez'
p1194
I4
sS'wittm.exbaker'
p1195
I1
sS'ietsw.'
p1196
I5
sS's.h.li'
p1197
I2
sS'linkexschult.'
p1198
I1
sS'v.m.baum'
p1199
I1
sS'guilf.'
p1200
I1
sS'm.b.crespo'
p1201
I27
sS'gilgexengl.'
p1202
I1
sS'vill.'
p1203
I12
sS'b.rodr.'
p1204
I1
sS's.b.ho'
p1205
I1
sS'j.w.grim'
p1206
I1
sS'golosk.'
p1207
I1
sS'greenm.'
p1208
I35
sS'j.s.wilson'
p1209
I1
sS'r.w.pohl'
p1210
I2
sS'a.s.barclay'
p1211
I1
sS'eliz.a.george'
p1212
I1
sS'retz.'
p1213
I2
sS'palam.'
p1214
I1
sS'c.r.parks'
p1215
I1
sS'e.e.schill.'
p1216
I2
sS'g.andrade'
p1217
I1
sS'bartl.'
p1218
I7
sS'h.reisinger'
p1219
I1
sS'y.f.deng'
p1220
I6
sS'corb.'
p1221
I6
sS'w.m.klein'
p1222
I5
sS'l.d.benson'
p1223
I47
sS'r.c.br.'
p1224
I1
sS'd.p.greg.'
p1225
I4
sS'arnegaexvaldsberm.'
p1226
I1
sS'cass.'
p1227
I3
sS'j.f.morales'
p1228
I2
sS'a.b.anderson'
p1229
I1
sS'j.m.coult.exk.schum.'
p1230
I1
sS'a.chev.exhutch.'
p1231
I1
sS's.w.su'
p1232
I2
sS'scheidw.'
p1233
I2
sS'pantl.'
p1234
I2
sS'seub.'
p1235
I3
sS'thonn.'
p1236
I3
sS'x.h.qian'
p1237
I1
sS'thuill.'
p1238
I4
sS'fern-carv.'
p1239
I1
sS'oliv.'
p1240
I24
sS'nauenb.'
p1241
I1
sS'k.d.hill'
p1242
I13
sS'e.murray'
p1243
I4
sS'b.sloane'
p1244
I1
sS'fr.exscheutz'
p1245
I1
sS'h.eichler'
p1246
I2
sS'batt.'
p1247
I53
sS'y.c.teng'
p1248
I1
sS'bromf.exbab.'
p1249
I1
sS'h.mohr'
p1250
I1
sS'graebn.'
p1251
I60
sS'hegelm.'
p1252
I1
sS'hsuehf.'
p1253
I2
sS'e.hauser'
p1254
I1
sS'k.krause'
p1255
I22
sS'j.h.hemsl.'
p1256
I5
sS'cavill.'
p1257
I7
sS'y.k.yang'
p1258
I6
sS'n.haseg.'
p1259
I1
sS'a.t.y.yang'
p1260
I1
sS'c.h.mll.'
p1261
I1
sS'm.s.baker'
p1262
I3
sS'a.r.bean'
p1263
I3
sS'k.suzuki'
p1264
I4
sS'bellem.'
p1265
I1
sS'standl.exsteyerm.'
p1266
I1
sS'p.a.schmidt'
p1267
I5
sS'y.c.tang'
p1268
I5
sS'benth.exoerst.'
p1269
I1
sS'fenzlexmoq.'
p1270
I1
sS'jedwabn.'
p1271
I1
sS'verg.'
p1272
I2
sS'mll.arg.'
p1273
I80
sS's.j.xu'
p1274
I1
sS'w.w.thomas'
p1275
I2
sS'rchb.exbatt.'
p1276
I1
sS'm.hopkins'
p1277
I4
sS'e.gamal-eldin'
p1278
I6
sS'a.j.richards'
p1279
I1
sS'rohrb.inmart.'
p1280
I1
sS'e.a.busch'
p1281
I3
sS's?vul.'
p1282
I1
sS'p.peralta'
p1283
I3
sS'scop.'
p1284
I5
sS'g.long'
p1285
I1
sS'v.m.badillo'
p1286
I6
sS'c.moore'
p1287
I3
sS'a.v.roberts'
p1288
I1
sS'babc.'
p1289
I28
sS'rothm.'
p1290
I22
sS'dinsm.'
p1291
I3
sS'hochst.exoliv.'
p1292
I1
sS'backeb.exskottsb.'
p1293
I1
sS'x.zhuang'
p1294
I1
sS'holmb.'
p1295
I29
sS'ghahr.'
p1296
I1
sS'jacq.'
p1297
I22
sS'meikleexc.d.k.cook'
p1298
I1
sS'f.muell.exfitzg.'
p1299
I1
sS'g.f.sm.'
p1300
I1
sS'fisch.exlink'
p1301
I2
sS'timb.-lagr.'
p1302
I17
sS'f.m.leight.'
p1303
I11
sS'soff.'
p1304
I1
sS'maireexemb.'
p1305
I1
sS'fern.prieto'
p1306
I3
sS'r.m.barker'
p1307
I1
sS'hutch.'
p1308
I39
sS'tirveng.'
p1309
I1
sS'hombr.'
p1310
I1
sS'r.rosell'
p1311
I1
sS'j.c.pires'
p1312
I1
sS'x.c.zhang'
p1313
I8
sS'vl.v.nikitin'
p1314
I3
sS'berland.'
p1315
I1
sS'irmsch.'
p1316
I17
sS"n.o'leary"
p1317
I4
sS'l.borgen'
p1318
I5
sS'd.l.roberts'
p1319
I1
sS'k.m.feng'
p1320
I3
sS'v.l.harms'
p1321
I1
sS's.watsonexa.gray'
p1322
I1
sS'serg.'
p1323
I5
sS'f.y.gao'
p1324
I2
sS'a.t.lee'
p1325
I3
sS'hoffm.exschbl.'
p1326
I1
sS'benn.'
p1327
I1
sS's.arias'
p1328
I2
sS'roxb.exvaucher'
p1329
I1
sS'kergawl.'
p1330
I4
sS'mohlenbr.'
p1331
I2
sS'kulcz.'
p1332
I1
sS'l.k.dai'
p1333
I2
sS'a.l.chang'
p1334
I1
sS'a.p.khokhr.'
p1335
I3
sS'sobr.-vesp.'
p1336
I1
sS'shuttlew.exkunze'
p1337
I1
sS'g.moreno'
p1338
I1
sS'kitam.'
p1339
I109
sS'tomm.exvis.'
p1340
I1
sS'r.j.bayer'
p1341
I11
sS'req.'
p1342
I3
sS'd.g.lloyd'
p1343
I13
sS'r.ortega'
p1344
I1
sS'shuttlew.exbuckn.'
p1345
I1
sS'verdc.'
p1346
I247
sS'h.wendl.exdrude'
p1347
I2
sS'heldr.exbenth.'
p1348
I1
sS'k.kreutz'
p1349
I2
sS'b.fedtsch.'
p1350
I12
sS'd.v.field'
p1351
I1
sS'n.i.orlova'
p1352
I1
sS'rupr.exjuz.'
p1353
I1
sS'alderw.'
p1354
I6
sS'maleg.'
p1355
I1
sS'k.knafex?elak.'
p1356
I2
sS'w.z.faust'
p1357
I1
sS'c.y.wuexj.t.pan'
p1358
I1
sS'c.a.lawson'
p1359
I1
sS'f.z.li'
p1360
I1
sS'w.seitz'
p1361
I1
sS'ogan.'
p1362
I14
sS'turcz.exbesser'
p1363
I1
sS'mcgill.'
p1364
I12
sS'brittonexl.arsne'
p1365
I1
sS'b.gates'
p1366
I2
sS'a.dupontexser.'
p1367
I1
sS'engelm.exs.watson'
p1368
I3
sS'wall.exroyle'
p1369
I1
sS'm.o.moore'
p1370
I1
sS'c.z.tang'
p1371
I1
sS'l.m.wang'
p1372
I1
sS'jabl.'
p1373
I1
sS'kk.'
p1374
I106
sS'rakot.'
p1375
I1
sS'b.willing'
p1376
I10
sS'poljak.'
p1377
I1
sS'c.sm.exlink'
p1378
I1
sS'heratexfraser-jenk.'
p1379
I1
sS'paulg.wilson'
p1380
I51
sS'ard.'
p1381
I1
sS'p.s.ashton'
p1382
I8
sS'schweinf.exhiern'
p1383
I2
sS'h.s.hua'
p1384
I2
sS'a.molina'
p1385
I2
sS'guitt.'
p1386
I5
sS'h.deane'
p1387
I4
sS'w.f.barker'
p1388
I3
sS'p.p.ferrer'
p1389
I2
sS'wall.exmll.arg.'
p1390
I1
sS'k.u.kramer'
p1391
I16
sS'c.yuchang'
p1392
I1
sS'lindm.'
p1393
I1
sS'a.j.paton'
p1394
I19
sS'sendt.'
p1395
I2
sS'wimm.'
p1396
I5
sS'r.br.exfresen.'
p1397
I1
sS'mart.exbenth.'
p1398
I1
sS'raym.-hamet'
p1399
I8
sS's.w.liu'
p1400
I5
sS'l.q.li'
p1401
I4
sS'h.e.ahles'
p1402
I5
sS'p.m.hall'
p1403
I1
sS'j.r.laundon'
p1404
I1
sS'b.j.pollard'
p1405
I3
sS'c.vandenberg'
p1406
I1
sS'z.lu'
p1407
I1
sS'l.k.escobar'
p1408
I3
sS'degenexnyr.excsrs'
p1409
I1
sS'panovexs.kouharov'
p1410
I1
sS'g.c.tucker'
p1411
I2
sS'guss.exdc.'
p1412
I1
sS'h.pfeiff.'
p1413
I1
sS'spellenb.'
p1414
I6
sS's.f.huang'
p1415
I1
sS'b.sm.'
p1416
I1
sS'brilli-catt.'
p1417
I1
sS'g.w.gillett'
p1418
I1
sS'f.w.schmidt'
p1419
I2
sS'baen.'
p1420
I1
sS'j.sinclair'
p1421
I5
sS'pittendr.'
p1422
I1
sS'z.y.li'
p1423
I3
sS'setch.'
p1424
I1
sS'r.r.rao'
p1425
I1
sS'k.h.tae'
p1426
I1
sS'tul.'
p1427
I7
sS'hub.-mor.'
p1428
I28
sS'k.kosuge'
p1429
I1
sS'klink.'
p1430
I1
sS'burm.f.'
p1431
I1
sS'c.c.freeman'
p1432
I1
sS'p.g.xiao'
p1433
I1
sS'jungh.'
p1434
I2
sS'koster.'
p1435
I1
sS'r.escobar'
p1436
I3
sS't.m.reeve'
p1437
I11
sS'backeb.exh.till'
p1438
I1
sS'st.-lag.'
p1439
I1
sS'm.w.wood'
p1440
I1
sS't.a.stephenson'
p1441
I3
sS'w.m.dennis'
p1442
I1
sS'c.y.cheng'
p1443
I5
sS'borbsexjv.'
p1444
I1
sS'f.t.hubb.'
p1445
I5
sS'standl.exsmall'
p1446
I1
sS'ulbr.'
p1447
I10
sS'm.a.carrin'
p1448
I1
sS'wirtg.'
p1449
I1
sS'e.sheld.'
p1450
I7
sS'r.buchner'
p1451
I1
sS'm.teissier'
p1452
I1
sS'h.wendl.exspruce'
p1453
I5
sS'prosp.'
p1454
I15
sS'ohwiexe.h.walker'
p1455
I1
sS'j.andrs'
p1456
I1
sS'j.p.sm.'
p1457
I1
sS'gris.'
p1458
I1
sS'a.cunn.ext.mitch.'
p1459
I1
sS'kihlm.'
p1460
I1
sS'r.o.gardner'
p1461
I6
sS'osterh.'
p1462
I4
sS'gonz.estv.'
p1463
I1
sS'a.m.powell'
p1464
I3
sS'j.e.vidal'
p1465
I14
sS'j.-p.castillon'
p1466
I2
sS'g.nicholson'
p1467
I4
sS'j.f.gmel.'
p1468
I1
sS"o'brienexcogn."
p1469
I1
sS'verm.'
p1470
I4
sS'rydb.exhowell'
p1471
I2
sS'tamamsch.'
p1472
I5
sS'faurh.'
p1473
I20
sS'c.schweinf.'
p1474
I1
sS'r.m.king'
p1475
I1
sS'n.c.duke'
p1476
I1
sS'thoth.'
p1477
I18
sS'herv.'
p1478
I2
sS'p.lima'
p1479
I1
sS'r.breiner'
p1480
I2
sS'rakotondr.'
p1481
I4
sS'd.nicolle'
p1482
I5
sS's.m.ku'
p1483
I2
sS'h.nakai'
p1484
I1
sS'm.h.jrg.'
p1485
I1
sS'seidenst.'
p1486
I2
sS'g.f.carr'
p1487
I3
sS'p.mathew'
p1488
I1
sS'j.h.weber'
p1489
I1
sS'bl.'
p1490
I2
sS'j.m.chao'
p1491
I1
sS'h.j.wang'
p1492
I1
sS'm.s.nicholls'
p1493
I1
sS'c.winkl.'
p1494
I1
sS'a.berger'
p1495
I8
sS'mart.exhook.f.'
p1496
I1
sS'n.c.nair'
p1497
I1
sS'bald.'
p1498
I8
sS'g.b.nairexcremers'
p1499
I1
sS'lodd.'
p1500
I8
sS'c.f.hsieh'
p1501
I3
sS'shuttlew.exrouy'
p1502
I1
sS'frd.exhand.-mazz.'
p1503
I1
sS'schum.'
p1504
I2
sS'chingexl.k.ling'
p1505
I1
sS'g.kellerexpett.'
p1506
I1
sS'e.l.rand'
p1507
I2
sS'jeanj.'
p1508
I2
sS'i.h.mll.'
p1509
I1
sS'l.b.zhang'
p1510
I1
sS'b.slavk'
p1511
I2
sS'regelexhanst.'
p1512
I1
sS'burb.'
p1513
I1
sS'mett.exd.c.eaton'
p1514
I1
sS'hook.f.exandersson'
p1515
I1
sS'hyl.'
p1516
I10
sS'tzanoud.'
p1517
I2
sS'a.ramos'
p1518
I1
sS'aug.dc.'
p1519
I2
sS'boiss.exdc.'
p1520
I1
sS'holub.'
p1521
I1
sS'kozhevn.'
p1522
I4
sS'michalk.'
p1523
I1
sS'a.fuchs'
p1524
I1
sS'ser.'
p1525
I10
sS'toyok.'
p1526
I4
sS'h.j.coste'
p1527
I3
sS'lindeb.exhartm.'
p1528
I1
sS'ruizlealexr.kiesling'
p1529
I1
sS'f.m.vzquez'
p1530
I8
sS'fern.casado'
p1531
I3
sS'buxb.'
p1532
I1
sS'c.b.clarkeexbaker'
p1533
I1
sS'watan.'
p1534
I1
sS'l.villar'
p1535
I2
sS'w.m.curtis'
p1536
I7
sS'g.s.fan'
p1537
I2
sS'mett.exkuhn'
p1538
I2
sS'hamerexj.m.h.shaw'
p1539
I1
sS'garca-mend.'
p1540
I1
sS'j.r.allison'
p1541
I2
sS's.ortiz'
p1542
I15
sS'hemsl.'
p1543
I45
sS'dum.cours.'
p1544
I1
sS'bechst.'
p1545
I3
sS'r.t.baker'
p1546
I11
sS'a.b.jacks.'
p1547
I3
sS'wohlf.'
p1548
I1
sS'fouc.'
p1549
I1
sS'p.a.harding'
p1550
I1
sS'hausm.exdallatorre'
p1551
I1
sS'spruceexhook.f.'
p1552
I1
sS'pauexr.morales'
p1553
I2
sS'laest.'
p1554
I2
sS'l.a.johnst.'
p1555
I1
sS'd.f.murray'
p1556
I2
sS'rostk.'
p1557
I2
sS't.u.p.konno'
p1558
I1
sS'g.j.lewis'
p1559
I12
sS'laness.'
p1560
I1
sS'preissm.'
p1561
I1
sS'p.h.allen'
p1562
I3
sS'g.j.anderson'
p1563
I1
sS'parl.'
p1564
I18
sS'n.g.marchant'
p1565
I17
sS'e.petit'
p1566
I1
sS'loes.exh.lv.'
p1567
I1
sS'lnnr.'
p1568
I1
sS'p.v.wells'
p1569
I24
sS'w.f.yates'
p1570
I1
sS'l.cardenas'
p1571
I3
sS'g.schneid.'
p1572
I1
sS'maxim.exbeissn.'
p1573
I1
sS'soexe.nelson'
p1574
I1
sS'cif.'
p1575
I8
sS'a.pool'
p1576
I1
sS'm.n.philipson'
p1577
I3
sS'lagerh.'
p1578
I2
sS'r.vsquez'
p1579
I3
sS'h.s.kiu'
p1580
I10
sS'opizexbercht.'
p1581
I1
sS'riscovill.'
p1582
I1
sS'a.k.jacks.'
p1583
I2
sS'e.phillips'
p1584
I6
sS'g.c.s.clarke'
p1585
I1
sS'c.r.ball'
p1586
I2
sS'b.j.conn'
p1587
I9
sS'rom.caill.'
p1588
I1
sS'rchb.expeterm.'
p1589
I1
sS'shiras.'
p1590
I1
sS'leuenb.'
p1591
I1
sS'b.b.simpson'
p1592
I1
sS'd.lakui?'
p1593
I1
sS'a.f.braithw.'
p1594
I2
sS's.chandra'
p1595
I1
sS's.stokes'
p1596
I24
sS'woods.'
p1597
I2
sS'j.m.macdougal'
p1598
I2
sS'j.weiss'
p1599
I1
sS'j.a.lackey'
p1600
I2
sS'stevan.'
p1601
I1
sS'wucherpf.'
p1602
I1
sS'fed.'
p1603
I14
sS'n.kilian'
p1604
I10
sS'h.blatt'
p1605
I1
sS'r.t.a.schouten'
p1606
I3
sS'fontquerexn.garcia'
p1607
I1
sS'z.d.liu'
p1608
I1
sS'c.y.wuexshan'
p1609
I1
sS'mart.-laborde'
p1610
I3
sS'wall.exsim'
p1611
I1
sS'gottschl.'
p1612
I86
sS'a.santosexbaares'
p1613
I1
sS'c.p.fern.'
p1614
I1
sS't.c.palmer'
p1615
I1
sS'f.muell.exr.t.baker'
p1616
I1
sS'drgeexharv.'
p1617
I1
sS'sivar.'
p1618
I1
sS'l.m.shultz'
p1619
I3
sS'l.b.cai'
p1620
I1
sS'i.a.andersson'
p1621
I2
sS'anashch.'
p1622
I1
sS'sosn.exbandin'
p1623
I1
sS'f.k.mey.'
p1624
I8
sS'l.c.leach'
p1625
I13
sS'g.f.tao'
p1626
I1
sS'w.j.chang'
p1627
I2
sS'r.w.sanders'
p1628
I7
sS'ramat.'
p1629
I1
sS'e.holzh.'
p1630
I1
sS'v.p.castro'
p1631
I14
sS'kom.exnekr.'
p1632
I1
sS'manden.'
p1633
I3
sS'banksexdc.'
p1634
I1
sS'cammerl.'
p1635
I1
sS'c.z.zheng'
p1636
I5
sS'g.e.linds.'
p1637
I5
sS'cornerexc.c.berg'
p1638
I1
sS'n.hall'
p1639
I37
sS'r.e.schultes'
p1640
I2
sS'eschsch.exgriseb.'
p1641
I1
sS'r.a.graham'
p1642
I4
sS'f.sez'
p1643
I4
sS'welw.exficalho'
p1644
I1
sS'zagan.'
p1645
I1
sS'w.weber'
p1646
I1
sS'pulv.'
p1647
I3
sS'hatus.exsimabuku'
p1648
I1
sS'j.m.powell'
p1649
I1
sS'heuff.'
p1650
I9
sS'ambrosiexa.kern.'
p1651
I1
sS'i.degener'
p1652
I3
sS'e.nelsonexso'
p1653
I1
sS'd.a.webbexjalas'
p1654
I1
sS'hesl.-harr.'
p1655
I2
sS'j.z.liu'
p1656
I1
sS'arrond.'
p1657
I1
sS'g.f.freeman'
p1658
I1
sS'v.v.byalt'
p1659
I2
sS'w.r.abraham'
p1660
I1
sS'w.watson'
p1661
I1
sS'req.exbertol.'
p1662
I1
sS'teijsm.'
p1663
I2
sS'sch.bip.'
p1664
I18
sS'podl.'
p1665
I5
sS'd.lindig'
p1666
I1
sS'poir.'
p1667
I21
sS'schltr.exwerderm.'
p1668
I1
sS'franch.'
p1669
I112
sS'm.d.hend.'
p1670
I1
sS'bourg.exnyman'
p1671
I1
sS'r.e.cook'
p1672
I1
sS'k.g.mathews'
p1673
I1
sS'wesm.'
p1674
I3
sS'v.engl.exc.k.schneid.'
p1675
I1
sS'heldr.'
p1676
I66
sS'kem.-nath.'
p1677
I8
sS'r.p.adams'
p1678
I10
sS'h.correvon'
p1679
I1
sS'szczaw.'
p1680
I1
sS'reichst.'
p1681
I4
sS'radcl.-sm.'
p1682
I45
sS'm.loehr'
p1683
I2
sS'chick.'
p1684
I1
sS'changy.yang'
p1685
I1
sS'l.e.groen'
p1686
I2
sS'y.s.hou'
p1687
I1
sS'g.hoo'
p1688
I6
sS'guss.exbertol.'
p1689
I1
sS'zum.'
p1690
I1
sS'm.maki'
p1691
I1
sS'fen.'
p1692
I4
sS'b.u.oh'
p1693
I2
sS'm.mller'
p1694
I1
sS'zhuk.'
p1695
I2
sS'k.mori'
p1696
I1
sS'durieuexbatt.'
p1697
I2
sS'wildh.'
p1698
I1
sS'b.hyland'
p1699
I4
sS'b.a.fowler'
p1700
I1
sS'd.j.dixon'
p1701
I2
sS'a.gooss.'
p1702
I1
sS'c.h.yueh'
p1703
I1
sS'a.l.ebel'
p1704
I3
sS's.h.wang'
p1705
I1
sS'j.e.burrows'
p1706
I1
sS'f.wilms'
p1707
I1
sS'trevis.'
p1708
I1
sS'j.'
p1709
I1
sS'o.kurze'
p1710
I2
sS's.n.dixit'
p1711
I1
sS'j.j.sm.'
p1712
I33
sS'j.m.porter'
p1713
I6
sS'hook.f.exmast.'
p1714
I1
sS'd.a.webb'
p1715
I33
sS'fitzg.'
p1716
I4
sS'k.marr'
p1717
I1
sS'matsum.'
p1718
I14
sS'perss.'
p1719
I1
sS'a.brckn.'
p1720
I1
sS'j.c.roos'
p1721
I1
sS'm.gangop.'
p1722
I13
sS'michx.'
p1723
I28
sS'lag.'
p1724
I8
sS'h.r.sweet'
p1725
I2
sS'h.it'
p1726
I6
sS'v.guess'
p1727
I1
sS'l.h.zhou'
p1728
I3
sS'seem.'
p1729
I2
sS'deweyextorr.'
p1730
I1
sS'h.walraven'
p1731
I1
sS'j.cay.'
p1732
I4
sS'm.kato'
p1733
I2
sS'r.ansari'
p1734
I1
sS's.g.aiken'
p1735
I1
sS'druceexn.robson'
p1736
I1
sS'shimot.exkitam.'
p1737
I1
sS'w.j.kress'
p1738
I2
sS'b.g.briggs'
p1739
I9
sS'nutt.exhook.'
p1740
I2
sS'gasp.exguss.'
p1741
I1
sS'minderh.'
p1742
I2
sS'n.busch'
p1743
I5
sS'seidenst.exihlenf.'
p1744
I1
sS'h.wendl.'
p1745
I4
sS'w.liu'
p1746
I1
sS'wall.exettingsh.'
p1747
I1
sS'j.t.johanss.'
p1748
I2
sS'mart.exengl.'
p1749
I1
sS'k.larsen'
p1750
I27
sS'ohwiexs.akiyama'
p1751
I1
sS'h.e.luther'
p1752
I3
sS'j.j.fay'
p1753
I3
sS'benth.'
p1754
I318
sS'a.h.moore'
p1755
I2
sS'r.l.lu'
p1756
I1
sS'h.weijen'
p1757
I4
sS'e.barbier'
p1758
I1
sS's.c.sand.'
p1759
I3
sS's.d.zhao'
p1760
I2
sS'bojerexdc.'
p1761
I3
sS'pierreexgagnep.'
p1762
I1
sS'b.thomas'
p1763
I3
sS'p.h.raven'
p1764
I50
sS'emericexloisel.'
p1765
I1
sS'j.h'
p1766
I1
sS'w.t.marshall'
p1767
I4
sS'd.k.pavlova'
p1768
I1
sS'degenexnyr.'
p1769
I1
sS'g.kudrjaschova'
p1770
I1
sS'sond.exharv.'
p1771
I1
sS'i.v.beljaeva'
p1772
I1
sS'y.l.yang'
p1773
I1
sS'standl.exleavenw.'
p1774
I1
sS'u.c.la'
p1775
I2
sS'k.schum.'
p1776
I57
sS'godr.'
p1777
I19
sS't.d.penn.'
p1778
I46
sS'g.martens'
p1779
I6
sS'y.l.chou'
p1780
I3
sS'h.gay'
p1781
I1
sS'pfeiff.'
p1782
I1
sS'griff.'
p1783
I2
sS'hellq.'
p1784
I12
sS'j.j.sm.exairyshaw'
p1785
I1
sS'h.durand'
p1786
I2
sS'c.c.kuo'
p1787
I1
sS'hatus.exh.ohba'
p1788
I1
sS'lehm.exth.wolf'
p1789
I1
sS'c.yungchang'
p1790
I3
sS'pauexcaball.'
p1791
I2
sS'c.a.mey.'
p1792
I25
sS't.p.lin'
p1793
I1
sS'cordem.'
p1794
I4
sS'm.g.corrick'
p1795
I1
sS'c.c.towns.'
p1796
I12
sS'ging.'
p1797
I2
sS'seidenf.'
p1798
I1
sS'boiss.exfritsch'
p1799
I1
sS'gaudich.'
p1800
I4
sS'f.n.williams'
p1801
I3
sS'pritz.'
p1802
I2
sS'schweinf.exbalf.f.'
p1803
I1
sS'm.a.gust.'
p1804
I2
sS't.c.chen'
p1805
I1
sS'b.h.chen'
p1806
I2
sS'kraenzl.'
p1807
I19
sS's.n.biswas'
p1808
I1
sS'r.g.wilson'
p1809
I1
sS'lojac.'
p1810
I9
sS'hunz.'
p1811
I10
sS'merxm.'
p1812
I27
sS'palmgr.'
p1813
I2
sS'b.sthl'
p1814
I4
sS'r.k.jansen'
p1815
I6
sS'h.neumayer'
p1816
I1
sS'p.d.sell'
p1817
I26
sS'b.verl.'
p1818
I1
sS'r.j.f.henderson'
p1819
I1
sS'd.a.german'
p1820
I2
sS'harrysm.'
p1821
I12
sS'e.green'
p1822
I1
sS'm.b.moss'
p1823
I3
sS'a.a.cocucci'
p1824
I4
sS'g.t.robbins'
p1825
I4
sS'turcz.exgorodkov'
p1826
I1
sS'yunck.'
p1827
I43
sS'l.w.cayzer'
p1828
I2
sS'e.g.naumova'
p1829
I1
sS'r.knuth'
p1830
I21
sS'j.everett'
p1831
I3
sS'trautv.exjuz.'
p1832
I1
sS'dekapr.'
p1833
I2
sS'yenc.yang'
p1834
I12
sS'l.lewis'
p1835
I1
sS'm.a.clem.'
p1836
I6
sS'f.m.jarrett'
p1837
I4
sS'h.jacobsen'
p1838
I2
sS'j.a.petterson'
p1839
I2
sS'amichexg.lpez'
p1840
I1
sS'a.robertson'
p1841
I1
sS'y.z.zhao'
p1842
I2
sS'hausskn.exo.e.schulz'
p1843
I1
sS'roxb.exaiton'
p1844
I1
sS'loisel.'
p1845
I8
sS'repp.'
p1846
I9
sS'ruzcast.'
p1847
I1
sS'j.doke'
p1848
I1
sS'czerniak.'
p1849
I1
sS'gaubaexbornm.'
p1850
I1
sS'gooden.'
p1851
I1
sS'neutel.'
p1852
I1
sS's.j.wolf'
p1853
I3
sS'i.deg.'
p1854
I4
sS'reut.exwillk.'
p1855
I1
sS'c.c.wang'
p1856
I1
sS'hawksw.'
p1857
I4
sS'borkh.'
p1858
I4
sS'o.hoffm.'
p1859
I16
sS'juss.expoir.'
p1860
I1
sS'rottb.'
p1861
I1
sS'mulk.'
p1862
I1
sS'r.w.lance'
p1863
I1
sS'j.thibaut'
p1864
I1
sS'ausserd.exzahn'
p1865
I1
sS'makinoexk.yabe'
p1866
I1
sS'kit.exnestl.'
p1867
I1
sS'royl.taylor'
p1868
I7
sS's.gama'
p1869
I1
sS'g.frankexh.till'
p1870
I1
sS'a.wood'
p1871
I1
sS'm.a.exellexgossw.'
p1872
I1
sS'g.m.plunkett'
p1873
I2
sS'g.lindb.'
p1874
I1
sS'v.j.zingerexv.i.krecz.'
p1875
I1
sS'trab.'
p1876
I27
sS'n.p.taylor'
p1877
I93
sS'copel.'
p1878
I5
sS'sol.exrichardson'
p1879
I1
sS'p.zhuang'
p1880
I1
sS'holm-niels.'
p1881
I3
sS's.m.hwang'
p1882
I6
sS'n.robson'
p1883
I47
sS'wall.exklatt'
p1884
I1
sS'sljuss.'
p1885
I1
sS'd.m.thomps.'
p1886
I4
sS'q.x.liuexk.m.shen'
p1887
I1
sS'gibbsruss.'
p1888
I1
sS'a.d.schill.'
p1889
I1
sS'stockh.'
p1890
I1
sS'a.hellerexrydb.'
p1891
I1
sS'sam.'
p1892
I8
sS't.shimizu'
p1893
I7
sS's.f.blakeexj.w.thompson'
p1894
I1
sS't.baytop'
p1895
I2
sS'e.krause'
p1896
I1
sS'bergmansexj.w.ingram'
p1897
I1
sS'k.ueda'
p1898
I2
sS'eastw.exsuksd.'
p1899
I1
sS'r.a.price'
p1900
I3
sS'g.p.lewis'
p1901
I11
sS's.hertel'
p1902
I1
sS'sennav.'
p1903
I1
sS'b.krishna'
p1904
I1
sS'yuanb.li'
p1905
I1
sS'schrt.'
p1906
I1
sS'p.c.tam'
p1907
I1
sS"o'call."
p1908
I1
sS'r.b.burb.'
p1909
I1
sS'g.forst.'
p1910
I1
sS'r.y.hirai'
p1911
I1
sS'hort.exzabel'
p1912
I5
sS't.l.li'
p1913
I1
sS'adamsexdc.'
p1914
I1
sS'emb.'
p1915
I28
sS'vasc.'
p1916
I1
sS'j.c.wang'
p1917
I1
sS'baageexg.fisch.'
p1918
I1
sS'l.bolus'
p1919
I31
sS'c.e.hermos.'
p1920
I1
sS'sum.chandra'
p1921
I1
sS'k.hoffm.'
p1922
I32
sS'hartw.exbenth.'
p1923
I1
sS'c.c.huangext.l.ming'
p1924
I1
sS'a.hern.'
p1925
I1
sS'welw.exhiern'
p1926
I6
sS't.s.hwang'
p1927
I1
sS'g.e.neumannexwimm.'
p1928
I1
sS'rosenst.'
p1929
I5
sS'hort.exk.koch'
p1930
I2
sS'wech.'
p1931
I1
sS'c.t.white'
p1932
I9
sS'h.s.irwin'
p1933
I223
sS'greuter.'
p1934
I1
sS's.l.pan'
p1935
I2
sS'g.cusset'
p1936
I2
sS'y.s.lian'
p1937
I1
sS'jord.'
p1938
I72
sS'p.h.ho'
p1939
I1
sS'p.morris'
p1940
I2
sS'f.w.andrews'
p1941
I1
sS'c.-a.jansson'
p1942
I1
sS'maxim.exmiq.'
p1943
I1
sS'j.devries'
p1944
I1
sS'f.ritterexd.r.hunt'
p1945
I1
sS'e.watson'
p1946
I4
sS'hort.expoir.'
p1947
I1
sS'j.c.zech'
p1948
I1
sS'schuit.'
p1949
I6
sS'underw.'
p1950
I4
sS'lendn.exschroet.'
p1951
I1
sS'b.llg.'
p1952
I6
sS'raym.-hametexrauh'
p1953
I1
sS'h.schloss.'
p1954
I1
sS't.h.arnold'
p1955
I1
sS'gang.'
p1956
I1
sS'r.fernandez'
p1957
I1
sS'r.m.lloyd'
p1958
I1
sS't.stephenson'
p1959
I4
sS'i.verd.'
p1960
I4
sS'c.y.wuexl.h.zhou'
p1961
I1
sS'hartwissexlindl.'
p1962
I1
sS'w.p.fangexw.k.hu'
p1963
I1
sS'hoffmanns.exzucc.'
p1964
I1
sS'pauexc.vicioso'
p1965
I1
sS'd.fang'
p1966
I1
sS's.ge'
p1967
I5
sS'izag.'
p1968
I2
sS's.a.mori'
p1969
I3
sS'st.-yves'
p1970
I4
sS's.h.huang'
p1971
I2
sS'r.fern.'
p1972
I57
sS'aubrv.'
p1973
I6
sS'a.d.hawkes'
p1974
I5
sS'j.w.grime'
p1975
I1
sS'r.s.irving'
p1976
I1
sS'h.m.hall'
p1977
I29
sS'r.m.harper'
p1978
I1
sS'l.r.xu'
p1979
I2
sS'j.c.wanginj.c.wang'
p1980
I1
sS'steinm.'
p1981
I1
sS'stapfexridl.'
p1982
I2
sS'z.y.su'
p1983
I6
sS'zahn.'
p1984
I1
sS'seriz.'
p1985
I4
sS'k.rasbach'
p1986
I1
sS'chakrab.'
p1987
I33
sS'boenn.exrchb.'
p1988
I1
sS'w.t.wangexc.f.wei'
p1989
I1
sS'a.l.budantzev'
p1990
I4
sS'm.c.len'
p1991
I1
sS'pacz.'
p1992
I1
sS'r.tucker'
p1993
I1
sS'timp.'
p1994
I1
sS'n.t.burb.'
p1995
I2
sS'wattexhutch.'
p1996
I1
sS'c.e.turner'
p1997
I2
sS'cooperr.'
p1998
I4
sS'l.h.bailey'
p1999
I36
sS'guss.exboiss.'
p2000
I1
sS'r.parker'
p2001
I2
sS'f.m.knuth'
p2002
I6
sS'c.h.hitchc.'
p2003
I2
sS'gomez-hin.'
p2004
I1
sS'c.agardh'
p2005
I1
sS'a.mattos'
p2006
I1
sS'hillebr.'
p2007
I15
sS'desf.'
p2008
I24
sS'brhlexhand.-mazz.'
p2009
I1
sS'roxb.exherb.'
p2010
I1
sS'vollm.'
p2011
I5
sS'c.f.wolffexnyman'
p2012
I1
sS'wol.'
p2013
I3
sS'h.f.copel.'
p2014
I2
sS'rusbyexbriq.'
p2015
I1
sS'hadj-moust.'
p2016
I1
sS'r.j.mitchell'
p2017
I1
sS'm.j.gallego'
p2018
I1
sS'snchez-mej.'
p2019
I2
sS'swynn.'
p2020
I1
sS'szaf.'
p2021
I1
sS'hack.'
p2022
I25
sS'ortegaoliv.'
p2023
I2
sS'bastm.'
p2024
I1
sS'a.velasco'
p2025
I1
sS'e.t.br.'
p2026
I1
sS'zanov.'
p2027
I5
sS'h.c.cutler'
p2028
I2
sS'r.e.wyatt'
p2029
I1
sS'a.d.santana'
p2030
I1
sS'n.p.balakr.'
p2031
I17
sS'c.hartm.'
p2032
I1
sS'nutt.'
p2033
I59
sS'takht.'
p2034
I6
sS'w.ludw.'
p2035
I2
sS'y.z.sunexc.y.wu'
p2036
I1
sS'c.a.gardner'
p2037
I4
sS'soexj.j.wood'
p2038
I1
sS'c.a.sm.'
p2039
I1
sS'j.m.aparicio'
p2040
I2
sS'kuzen.'
p2041
I1
sS'eschsch.'
p2042
I1
sS'g.kellerexreinhard'
p2043
I1
sS'g.moser'
p2044
I2
sS'e.beck'
p2045
I1
sS'champ.exbenth.'
p2046
I1
sS'hook.f.explanch.'
p2047
I1
sS'a.e.holland'
p2048
I3
sS'e.breiner'
p2049
I2
sS'h.okada'
p2050
I1
sS'z.z.wang'
p2051
I1
sS'p.j.d.winter'
p2052
I2
sS'z.h.pan'
p2053
I1
sS'j.osborne'
p2054
I6
sS'rosenv.'
p2055
I1
sS'q.p.xiang'
p2056
I1
sS'o.spring'
p2057
I1
sS's.g.lu'
p2058
I1
sS'legallexgren.'
p2059
I1
sS'g.s.ringius'
p2060
I5
sS'j.q.li'
p2061
I2
sS'j.f.bain'
p2062
I1
sS'y.l.chang'
p2063
I3
sS'castell.'
p2064
I1
sS'g.l.nesom'
p2065
I111
sS'bertol.exmuller'
p2066
I1
sS'andrz.exc.a.mey.'
p2067
I1
sS'harv.exhiern'
p2068
I1
sS'n.jacobsen'
p2069
I7
sS'lindem.'
p2070
I1
sS'mart.exprogel'
p2071
I1
sS'muhl.'
p2072
I2
sS'm.e.garca'
p2073
I1
sS'welw.exrendle'
p2074
I1
sS'rand.morgan'
p2075
I2
sS'ehrh.exwilld.'
p2076
I1
sS'moq.'
p2077
I13
sS'mert.'
p2078
I2
sS'champl.'
p2079
I2
sS'davenp.'
p2080
I2
sS'th.wolf'
p2081
I2
sS'a.faure'
p2082
I2
sS'j.gonzales'
p2083
I3
sS'nolteexrchb.'
p2084
I1
sS'd.c.hassall'
p2085
I1
sS'j.e.keeley'
p2086
I2
sS'k.kochexpaxton'
p2087
I1
sS'talbotexbenth.'
p2088
I1
sS'turcz.exgriseb.'
p2089
I1
sS'm.w.skinner'
p2090
I5
sS'j.m.monts.'
p2091
I5
sS'acht.'
p2092
I5
sS'potg.'
p2093
I1
sS'm.r.lowe'
p2094
I1
sS's.s.larsen'
p2095
I39
sS'c.f.w.meissn.'
p2096
I1
sS'p.franco'
p2097
I1
sS'contandr.'
p2098
I2
sS'p.lewis'
p2099
I2
sS'j.j.rodr.'
p2100
I1
sS'e.wollenw.'
p2101
I2
sS'j.duvign.'
p2102
I4
sS'd.banik'
p2103
I2
sS'edwinexj.linares'
p2104
I1
sS'hornsch.'
p2105
I1
sS'r.lorenz'
p2106
I3
sS's.h.wu'
p2107
I6
sS'f.gonzlez'
p2108
I2
sS'arbonn.'
p2109
I1
sS'hort.exj.paxton'
p2110
I1
sS'willd.exroem.'
p2111
I1
sS'n.mukh.'
p2112
I2
sS'p.taylor'
p2113
I10
sS'maidenexr.t.baker'
p2114
I1
sS'khokhr.'
p2115
I1
sS'grin?.'
p2116
I1
sS'kolt.'
p2117
I1
sS'steud.'
p2118
I23
sS's.z.huangexh.b.cui'
p2119
I1
sS'hoppeexw.d.j.koch'
p2120
I2
sS'i.nogueira'
p2121
I1
sS'q.lin'
p2122
I2
sS'h.karst.'
p2123
I4
sS'b.heyneexroth'
p2124
I1
sS'herb.'
p2125
I10
sS't.g.j.rayner'
p2126
I2
sS'm.cheng'
p2127
I2
sS'mcall.'
p2128
I3
sS'guymerexp.i.forst.'
p2129
I1
sS'warm.'
p2130
I5
sS'sull.'
p2131
I1
sS't.l.chin'
p2132
I1
sS't.anderson'
p2133
I1
sS'semiotr.'
p2134
I1
sS'e.e.nelson'
p2135
I7
sS'c.'
p2136
I1
sS'c.k.lim'
p2137
I4
sS'a.h.holmgren'
p2138
I6
sS'jurtzevexv.v.petrovsky'
p2139
I1
sS'c.x.ye'
p2140
I2
sS'c.c.huang'
p2141
I10
sS'd.l.fu'
p2142
I2
sS'snd.'
p2143
I3
sS'e.m.norman'
p2144
I4
sS'i.k.ferguson'
p2145
I6
sS's.h.oh'
p2146
I1
sS'k.d.scott'
p2147
I1
sS't.w.walters'
p2148
I1
sS'm.j.zhong'
p2149
I1
sS'willd.exschult.'
p2150
I3
sS'almq.'
p2151
I6
sS'meisn.'
p2152
I53
sS'chingexs.g.lu'
p2153
I2
sS'k.knaf'
p2154
I1
sS'mach.-laur.'
p2155
I2
sS'span.'
p2156
I1
sS'w.y.hsu'
p2157
I1
sS'chapm.exmoldenke'
p2158
I1
sS'svent.'
p2159
I18
sS'stevenexledeb.'
p2160
I1
sS'alph.wood'
p2161
I9
sS'mart.crov.'
p2162
I2
sS'c.aedoprez'
p2163
I2
sS'rchb.f.exrothm.'
p2164
I2
sS'jimnezrodr.'
p2165
I1
sS'baill.exmll.arg.'
p2166
I2
sS'szentp.'
p2167
I1
sS'r.j.f.hend.'
p2168
I16
sS'murav.'
p2169
I1
sS'h.schnfelder'
p2170
I1
sS'm.a.daz'
p2171
I3
sS'hochst.'
p2172
I9
sS'r.geesink'
p2173
I1
sS'i.telford'
p2174
I1
sS'nordh.'
p2175
I1
sS'bubaniextimb.-lagr.'
p2176
I1
sS's.l.welsh'
p2177
I58
sS'm.bieb.'
p2178
I17
sS'balf.f.extagg'
p2179
I2
sS'a.chev.'
p2180
I20
sS'a.szab'
p2181
I1
sS'mart.parras'
p2182
I1
sS'j.b.kirkp.'
p2183
I3
sS'wiersemaexd.b.ward'
p2184
I1
sS'c.barker'
p2185
I1
sS'loes.exfritsch'
p2186
I1
sS'biv.'
p2187
I4
sS'b.p.faria'
p2188
I1
sS'gagnep.'
p2189
I42
sS'zoll.'
p2190
I1
sS'wingf.'
p2191
I1
sS'r.l.carr'
p2192
I2
sS'c.j.qi'
p2193
I1
sS'asch.'
p2194
I67
sS'c.y.wuexh.chuang'
p2195
I1
sS'g.morschek'
p2196
I1
sS'vestergr.'
p2197
I1
sS'macmill.'
p2198
I1
sS'bornm.'
p2199
I91
sS'harr.'
p2200
I1
sS'h.gross'
p2201
I1
sS'a.d.mitch.'
p2202
I1
sS'h.f.lewis'
p2203
I15
sS'm.g.gilbert'
p2204
I12
sS'k.s.patil'
p2205
I3
sS'n.murak.'
p2206
I2
sS'j.g.kim'
p2207
I1
sS'suksd.'
p2208
I18
sS'reyes-bet.'
p2209
I1
sS'schltdl.'
p2210
I26
sS'g.keller'
p2211
I6
sS'chaub.'
p2212
I2
sS'a.agostini'
p2213
I1
sS'w.d.clark'
p2214
I2
sS'al.'
p2215
I66
sS'bonap.exdewild.'
p2216
I1
sS'schmidt-leb.'
p2217
I1
sS'.e.dahl'
p2218
I1
sS'l.f.?elak.'
p2219
I1
sS'gus.schneid.'
p2220
I2
sS'senn.'
p2221
I1
sS'chern.'
p2222
I1
sS's.watan.'
p2223
I3
sS'j.papp'
p2224
I1
sS'chamch.'
p2225
I1
sS'm.c.chang'
p2226
I10
sS's.c.huang'
p2227
I1
sS'b.v.barnes'
p2228
I1
sS'e.b.sm.'
p2229
I5
sS'blanch.'
p2230
I2
sS'g.g.graham'
p2231
I1
sS'pellegr.'
p2232
I10
sS'exr.e.brooks'
p2233
I1
sS'.lemoineexandr'
p2234
I1
sS'h.baker'
p2235
I1
sS'vazq.-ben.'
p2236
I2
sS'c.l.beckm.'
p2237
I1
sS'c.t.mason'
p2238
I7
sS'mtot.'
p2239
I2
sS'e.walther'
p2240
I4
sS'h.m.hern.'
p2241
I7
sS'w.wight'
p2242
I1
sS'chmiel.'
p2243
I2
sS'x.p.zhou'
p2244
I1
sS'd.b.dun'
p2245
I1
sS'fingerh.'
p2246
I1
sS'm..carvalho'
p2247
I1
sS'mart.exeichler'
p2248
I1
sS'j.h.thomas'
p2249
I1
sS'd.e.mey.'
p2250
I1
sS'r.w.long'
p2251
I7
sS'christ.'
p2252
I1
sS'k.m.becker'
p2253
I4
sS'z.j.liu'
p2254
I19
sS'a.schreib.'
p2255
I6
sS'p.francor.'
p2256
I1
sS'friv.'
p2257
I3
sS'c.y.wuexm.l.sheh'
p2258
I1
sS'cambess.'
p2259
I11
sS'k.hschwer.'
p2260
I1
sS'e.j.palmer'
p2261
I24
sS'y.schouten'
p2262
I5
sS'molinagonz.'
p2263
I1
sS'krasnob.'
p2264
I4
sS't.gong'
p2265
I1
sS'gand.'
p2266
I31
sS'd.heller'
p2267
I12
sS'bercht.'
p2268
I1
sS'r.d.thomas'
p2269
I1
sS'tak.sato'
p2270
I1
sS'ramondexdc.'
p2271
I1
sS'm.v.ferreira'
p2272
I1
sS'alleiz.'
p2273
I2
sS'schbl.'
p2274
I5
sS'g.frank'
p2275
I8
sS'q.xing'
p2276
I1
sS's.mukh.'
p2277
I2
sS'st.-lg.'
p2278
I1
sS'cath.'
p2279
I2
sS'lundellexe.m.norman'
p2280
I1
sS'i.m.johnst.'
p2281
I64
sS'a.a.h.schulz'
p2282
I1
sS'h.s.wang'
p2283
I2
sS'r.h.roberts'
p2284
I1
sS'pers.'
p2285
I17
sS'm.l.green'
p2286
I1
sS'k.ohashi'
p2287
I2
sS'hurus.'
p2288
I4
sS'lindgr.'
p2289
I1
sS'middled.'
p2290
I1
sS'r.r.johnson'
p2291
I1
sS'rothm.exmelderis'
p2292
I1
sS's.t.reynolds'
p2293
I7
sS'wall.exbaker'
p2294
I2
sS'grab.'
p2295
I2
sS'a.pramanik'
p2296
I7
sS'j.li'
p2297
I6
sS'w.t.wang'
p2298
I138
sS'g.i.baird'
p2299
I35
sS'm.s.evans'
p2300
I1
sS'j.g.lamb.'
p2301
I1
sS'w.c.chengexrehder'
p2302
I1
sS'e.fourn.'
p2303
I8
sS't.s.ying'
p2304
I1
sS'g.e.pollard'
p2305
I2
sS'doluch.'
p2306
I2
sS'nikif.'
p2307
I1
sS'c.chr.'
p2308
I37
sS't.georgiadis'
p2309
I4
sS'v.v.petrovsky'
p2310
I5
sS'y.b.chang'
p2311
I1
sS'j.h.kirkbr.'
p2312
I1
sS'p.wilsoninbritton'
p2313
I1
sS'j.d.ray'
p2314
I1
sS'borbsexasch.'
p2315
I1
sS'hutch.exnelmes'
p2316
I1
sS'c.d.k.cook'
p2317
I4
sS'm.allard'
p2318
I1
sS'zahnexengl.'
p2319
I1
sS'poselg.'
p2320
I1
sS'kirschl.'
p2321
I3
sS'j.h.ross'
p2322
I5
sS'm.srensen'
p2323
I1
sS'n.s.lee'
p2324
I1
sS'a.henry'
p2325
I6
sS'm.s.mayer'
p2326
I3
sS'w.l.chew'
p2327
I2
sS'g.v.pope'
p2328
I2
sS'boscextausch.'
p2329
I1
sS'uribe-ech.'
p2330
I9
sS'g.c.kenn.'
p2331
I1
sS'm.hiroe'
p2332
I1
sS'borjaexd.rivera'
p2333
I1
sS'e.w.miao'
p2334
I1
sS'butterf.'
p2335
I1
sS'kom.'
p2336
I17
sS'w.wolf'
p2337
I4
sS'simonk.'
p2338
I33
sS'k.bremer'
p2339
I4
sS'f.o.khass.'
p2340
I4
sS'f.maek.'
p2341
I17
sS'r.l.brooks'
p2342
I1
sS'w.h.wagner'
p2343
I5
sS'j.h.adam'
p2344
I1
sS'brand.'
p2345
I1
sS'a.r.sm.'
p2346
I20
sS'r.h.archer'
p2347
I2
sS'b.y.sun'
p2348
I1
sS'n.zhao'
p2349
I1
sS'l.cecchi'
p2350
I3
sS'masam.'
p2351
I22
sS'chunext.c.chen'
p2352
I1
sS'schkuhrexspreng.'
p2353
I1
sS'roseng.'
p2354
I1
sS'd.t.cole'
p2355
I1
sS'g.l.chu'
p2356
I9
sS'p.j.mll.'
p2357
I4
sS'm.schulze'
p2358
I7
sS'ced.porter'
p2359
I1
sS'jimnezalb.'
p2360
I1
sS'th.fr.'
p2361
I1
sS'hieron.'
p2362
I25
sS'g.p.nabhanext.w.walte'
p2363
I1
sS'f.gmiz'
p2364
I1
sS'bravoexs.ariasmontes'
p2365
I1
sS'l.d.gmez'
p2366
I7
sS'trautm.'
p2367
I2
sS'b.m.kapoor'
p2368
I2
sS'f.a.barkley'
p2369
I11
sS'wendl.'
p2370
I1
sS'a.hofer'
p2371
I1
sS'z.t.guan'
p2372
I1
sS's.gamalopez'
p2373
I1
sS'planch.'
p2374
I19
sS'raf.exdc.'
p2375
I1
sS'raf.'
p2376
I25
sS'lingelsh.exlimpr.'
p2377
I1
sS'h.m.hern'
p2378
I1
sS'b.m.g.jones'
p2379
I2
sS'g.lawson'
p2380
I1
sS'b.w.vanee'
p2381
I2
sS'geyerexhook.'
p2382
I1
sS'torr.'
p2383
I120
sS'y.y.fangext.t.yu'
p2384
I1
sS'pawl.'
p2385
I1
sS's.l.stewart'
p2386
I2
sS'r.c.srivast.'
p2387
I3
sS'rodr.oubia'
p2388
I6
sS'g.lopez'
p2389
I1
sS'kusn.'
p2390
I7
sS'c.y.wuexr.h.shan'
p2391
I1
sS'schumach.'
p2392
I6
sS'salisb.'
p2393
I6
sS'kitan.'
p2394
I1
sS'strausb.'
p2395
I1
sS'r.w.holm'
p2396
I1
sS'h.c.hopkins'
p2397
I2
sS'y.k.li'
p2398
I2
sS'linkexpfeiff.'
p2399
I1
sS'k.l.wilson'
p2400
I5
sS'schult.'
p2401
I19
sS'z.l.chen'
p2402
I1
sS'b.d.parfitt'
p2403
I3
sS'eggl.'
p2404
I7
sS'k.k.shrestha'
p2405
I1
sS'c.wright'
p2406
I2
sS'thomasexhegetschw.'
p2407
I1
sS's.d.sundb.'
p2408
I2
sS'klack.'
p2409
I7
sS'p.l.perry'
p2410
I9
sS'c.l.li'
p2411
I18
sS'yamam.'
p2412
I13
sS'lderw.'
p2413
I1
sS'c.e.anderson'
p2414
I3
sS'hagstr.'
p2415
I12
sS'hoppeexmert.'
p2416
I1
sS'a.robyns'
p2417
I5
sS'douglassm.hend.'
p2418
I4
sS'mizush.'
p2419
I2
sS'hohen.'
p2420
I4
sS'k.maly'
p2421
I1
sS'p.a.ashton'
p2422
I1
sS's.d.prince'
p2423
I1
sS'i.richardson'
p2424
I10
sS's.suzukiexh.ohba'
p2425
I1
sS'sturtev.'
p2426
I2
sS'licht.'
p2427
I1
sS'hallierf.exooststr.'
p2428
I1
sS'y.t.hsieh'
p2429
I1
sS'mayesexg.k.br.'
p2430
I6
sS'h.a.baker'
p2431
I1
sS'saff.'
p2432
I2
sS'muretext.durand'
p2433
I1
sS'o.d.evans'
p2434
I1
sS'linkexcout.'
p2435
I1
sS'a.a.bobrov'
p2436
I2
sS'boryexwilld.'
p2437
I1
sS'tzukerv.'
p2438
I1
sS's.suzuki'
p2439
I1
sS'sol.exlowe'
p2440
I1
sS'stemmerm.'
p2441
I1
sS'r.'
p2442
I1
sS'd.hou'
p2443
I3
sS'j.-b.castillon'
p2444
I7
sS'r.patt.'
p2445
I1
sS'm.kim'
p2446
I1
sS'p.s.short'
p2447
I4
sS'a.r.flores'
p2448
I2
sS'bacch.'
p2449
I1
sS'l.pauwels'
p2450
I2
sS'r.w.haines'
p2451
I11
sS'lewej.'
p2452
I1
sS'jacq.-fl.'
p2453
I8
sS'peetersexcogn.'
p2454
I1
sS'h.j.p.winkl.'
p2455
I9
sS'r.n.carter'
p2456
I1
sS'm.proctor'
p2457
I3
sS'schrad.exw.d.j.koch'
p2458
I1
sS'c.n.forbes'
p2459
I2
sS'gaut.exrouy'
p2460
I1
sS'deuterexhodk.'
p2461
I1
sS'burch.exkergawl.'
p2462
I1
sS'prosch.'
p2463
I1
sS'c.l.min'
p2464
I1
sS'cufod.'
p2465
I25
sS'j.m.poole'
p2466
I2
sS'y.r.ling'
p2467
I11
sS'j.w.green'
p2468
I2
sS'wall.'
p2469
I11
sS'heinr.braunexwettst.'
p2470
I1
sS'd.s.decker'
p2471
I2
sS'bogenh.'
p2472
I1
sS'c.wrightexsauvalle'
p2473
I1
sS'r.a.howard'
p2474
I2
sS'c.vicioso'
p2475
I9
sS'rech.f.'
p2476
I183
sS'port.'
p2477
I1
sS's.l.liu'
p2478
I1
sS'sieberexser.'
p2479
I1
sS'e.e.lamont'
p2480
I3
sS'anderb.'
p2481
I1
sS'g.kellerext.stephenson'
p2482
I1
sS'trin.exgriseb.'
p2483
I1
sS'y.c.liu'
p2484
I2
sS'h.christ'
p2485
I1
sS'h.mason'
p2486
I22
sS'lpez-pal.'
p2487
I2
sS'p.j.bergius'
p2488
I4
sS'i.e.mndez'
p2489
I1
sS's.e.frhner'
p2490
I2
sS'i.m.johnst.extidestr.'
p2491
I1
sS'sibth.'
p2492
I1
sS'c.a.toft'
p2493
I1
sS'y.li'
p2494
I1
sS'sebast.'
p2495
I2
sS'v.jirsek'
p2496
I1
sS'jim.perss.'
p2497
I1
sS'n.r.crouch'
p2498
I2
sS'a.p.davis'
p2499
I22
sS'ladiz.'
p2500
I2
sS'harrysm.ext.n.ho'
p2501
I1
sS'r.r.stewart'
p2502
I3
sS'c.nelson'
p2503
I2
sS'x.y.zhu'
p2504
I15
sS'y.z.sun'
p2505
I3
sS'h.wolff'
p2506
I10
sS'klotzschexmeisn.'
p2507
I1
sS'j.l.anderson'
p2508
I1
sS'f.br.'
p2509
I1
sS'hausm.exfocke'
p2510
I1
sS'martic.'
p2511
I5
sS'tod.exlojac.'
p2512
I1
sS'b.l.turner'
p2513
I75
sS'zahlbr.'
p2514
I3
sS'a.f.hill'
p2515
I1
sS'chapm.'
p2516
I12
sS'wattexbalf.f.'
p2517
I1
sS'h.r.reinhardexw.j.schrenk'
p2518
I1
sS'all.'
p2519
I11
sS'j.prado'
p2520
I1
sS'j.t.atwood'
p2521
I1
sS'c.e.salmon'
p2522
I1
sS'd.don'
p2523
I13
sS'c.c.ni'
p2524
I2
sS'p.w.ball'
p2525
I51
sS'gu?ul.'
p2526
I3
sS'b.boivin'
p2527
I81
sS'c.berg'
p2528
I2
sS'medw.'
p2529
I2
sS't.c.e.fr.'
p2530
I7
sS'sart.exboiss.'
p2531
I3
sS'h.hartmann'
p2532
I1
sS's.c.meyers'
p2533
I1
sS'j.m.coult.'
p2534
I27
sS'guiroexwillk.'
p2535
I1
sS'oberpr.'
p2536
I23
sS's.o.yu'
p2537
I1
sS'w.rossi'
p2538
I6
sS'l.bremer'
p2539
I2
sS'penz.'
p2540
I1
sS'j.wen'
p2541
I6
sS'kitam.exohwi'
p2542
I1
sS'j.w.moore'
p2543
I2
sS'e.a.rob.'
p2544
I1
sS'gottsb.'
p2545
I2
sS'k.hellm.'
p2546
I1
sS'a.grayexs.watson'
p2547
I3
sS'd.j.botha'
p2548
I1
sS'm.s.anthony'
p2549
I2
sS'c.morales'
p2550
I2
sS's.g.skinner'
p2551
I3
sS'b.k.nayar'
p2552
I1
sS'woronowexgrossh.'
p2553
I1
sS'l.f.hend.'
p2554
I4
sS'z.x.yu'
p2555
I2
sS'silberb.-gottsb.'
p2556
I2
sS'e.willm.'
p2557
I1
sS'x.t.liu'
p2558
I1
sS't.y.cheo'
p2559
I2
sS'mankt.'
p2560
I2
sS'lockwoodexr.e.schult.'
p2561
I1
sS'rodr.'
p2562
I2
sS'f.p.metcalf'
p2563
I5
sS'm.popp'
p2564
I1
sS'r.m.fritsch'
p2565
I5
sS'sosn.'
p2566
I11
sS'tolm.'
p2567
I2
sS'"a.h.holmgren'
p2568
I1
sS'probed.'
p2569
I1
sS'k.f.parker'
p2570
I4
sS'z.wang'
p2571
I2
sS'j.m.xu'
p2572
I3
sS'koopexh.till'
p2573
I1
sS'bojerexbaill.'
p2574
I1
sS'waitzextratt.'
p2575
I1
sS'steyerm.'
p2576
I107
sS'g.kunkel'
p2577
I26
sS'z.r.he'
p2578
I3
sS'rivasmart.'
p2579
I50
sS'inanimadvers.'
p2580
I1
sS'c.chen'
p2581
I10
sS'b.d.naithani'
p2582
I1
sS'r.rodr.'
p2583
I1
sS'tod.'
p2584
I4
sS'collad.'
p2585
I1
sS'h.lv.'
p2586
I66
sS'toumeyexk.schum.'
p2587
I1
sS's.kim'
p2588
I1
sS'cuatrec.'
p2589
I73
sS'litv.'
p2590
I31
sS'chiov.'
p2591
I26
sS'b.m.potts'
p2592
I1
sS'acev.-rodr.'
p2593
I2
sS'p.o.karis'
p2594
I4
sS'lingexc.shih'
p2595
I1
sS'o.schwarz'
p2596
I13
sS'starm.'
p2597
I10
sS'jeanf.brunel'
p2598
I1
sS's.baumann'
p2599
I1
sS'g.h.m.lawr.'
p2600
I1
sS'neilr.'
p2601
I3
sS'm.lanz'
p2602
I23
sS'j.w.mathews'
p2603
I2
sS'mart.exkrn.'
p2604
I1
sS'b.bremer'
p2605
I5
sS'p.wilson'
p2606
I5
sS'zhenq.li'
p2607
I1
sS'j.henrickson'
p2608
I3
sS'e.w.davies'
p2609
I1
sS'z.y.zhang'
p2610
I1
sS'm.toman'
p2611
I1
sS'o.deg.'
p2612
I15
sS'a.v.hall'
p2613
I6
sS'aubl.'
p2614
I1
sS'tineoexlojac.'
p2615
I1
sS"boryexd'urv."
p2616
I1
sS'y.a.chen'
p2617
I2
sS'edwinexp.a.gonzalez'
p2618
I1
sS'l.h.cramer'
p2619
I2
sS'w.b.sun'
p2620
I2
sS'scribn.'
p2621
I5
sS'r.fernald'
p2622
I1
sS'j.kern'
p2623
I9
sS'scheff.'
p2624
I1
sS'p.j.cribb'
p2625
I36
sS'vieill.exguillaumin'
p2626
I1
sS'i.thomps.'
p2627
I7
sS'f.g.davies'
p2628
I2
sS'f.maek.exkitam.'
p2629
I1
sS'maxim.exkuntze'
p2630
I1
sS'wedd.'
p2631
I20
sS'brgepett.'
p2632
I1
sS'r.l.small'
p2633
I1
sS'l.touss.'
p2634
I1
sS'littlew.'
p2635
I1
sS'shimot.'
p2636
I1
sS'a.c.s.pereira'
p2637
I1
sS'botsch.'
p2638
I6
sS'sol.exhook.f.'
p2639
I1
sS'j.ortmann'
p2640
I1
sS'l.klingenberg'
p2641
I1
sS'sieberexspreng.'
p2642
I1
sS'z.y.cao'
p2643
I2
sS'c.b.clarkeinbaker'
p2644
I1
sS'warsz.'
p2645
I2
sS'roxb.exschult.'
p2646
I1
sS'willk.'
p2647
I52
sS'yonek.'
p2648
I1
sS'e.fuentes'
p2649
I1
sS'd.rivera'
p2650
I14
sS'n.snow'
p2651
I7
sS'hir.takah.'
p2652
I1
sS'sa.kurata'
p2653
I6
sS'kindb.'
p2654
I1
sS'schult.f.'
p2655
I5
sS'z.r.wang'
p2656
I1
sS'u.guzmn'
p2657
I46
sS's.r.ghosh'
p2658
I1
sS'r.guess'
p2659
I1
sS'gonz.albo'
p2660
I1
sS'e.baumann'
p2661
I2
sS'leyb.'
p2662
I1
sS'y.yabe'
p2663
I2
sS'd.r.hunt'
p2664
I93
sS'e.drew'
p2665
I1
sS'p.m.br.'
p2666
I8
sS'garca-gran.'
p2667
I1
sS'y.s.wang'
p2668
I1
sS'h.e.ballard'
p2669
I2
sS'eggertexl.h.bailey'
p2670
I1
sS'm.e.jansen'
p2671
I1
sS'turcz.exboiss.'
p2672
I1
sS'm.v.hayden'
p2673
I1
sS'a.d.grant'
p2674
I10
sS'vivek.'
p2675
I1
sS'tiderstr.'
p2676
I2
sS'p.s.green'
p2677
I35
sS'r.rabev.'
p2678
I4
sS'a.santos'
p2679
I1
sS'sarg.'
p2680
I74
sS'l.b.moore'
p2681
I3
sS'm.e.jonesexs.watson'
p2682
I1
sS'benth.insowerby'
p2683
I1
sS'j.gayexmaw'
p2684
I1
sS'wall.exgrev.'
p2685
I1
sS'r.t.craigbis'
p2686
I1
sS'k.m.matthewexramamoorthy'
p2687
I1
sS'r.jimnez'
p2688
I4
sS'tutinexn.m.pritch.'
p2689
I1
sS'c.jeffrey'
p2690
I22
sS'h.f.comber'
p2691
I2
sS'paxexdewild.'
p2692
I1
sS'c.daz'
p2693
I1
sS'wettst.exhayek'
p2694
I2
sS'k.'
p2695
I18
sS'salzm.exuline'
p2696
I1
sS'c.a.mey.exiljin'
p2697
I1
sS'hochst.exwebb'
p2698
I1
sS'berthel.'
p2699
I13
sS'azevdo-gon.'
p2700
I1
sS't.p.clark'
p2701
I1
sS'v.i.dorof.'
p2702
I1
sS'h.b.parks'
p2703
I1
sS'y.c.yang'
p2704
I3
sS'dierb.'
p2705
I1
sS'k.iwats.'
p2706
I5
sS'e.p.hume'
p2707
I4
sS'achv.'
p2708
I1
sS's.a.hammer'
p2709
I32
sS'd.z.fu'
p2710
I1
sS'a.v.duthieexstapf'
p2711
I1
sS'e.d.popova'
p2712
I2
sS'hohen.exboiss.'
p2713
I1
sS'ohwiexh.ohba'
p2714
I1
sS'g.taylor'
p2715
I6
sS'schweick.'
p2716
I3
sS'a.e.kozhevn.'
p2717
I3
sS'lanj.'
p2718
I2
sS'bernh.exschult.'
p2719
I1
sS'n.chao'
p2720
I7
sS'l.uribe'
p2721
I1
sS'j.presl'
p2722
I5
sS'l.gaut.'
p2723
I4
sS'lundstr.exkindb.'
p2724
I1
sS'boivinextul.'
p2725
I1
sS't.miyake'
p2726
I1
sS'kar.'
p2727
I7
sS'p.k.sarkar'
p2728
I2
sS'ridl.'
p2729
I73
sS'd.m.bates'
p2730
I1
sS'cav.'
p2731
I16
sS'm.kessler'
p2732
I2
sS'prestandr.extineo'
p2733
I1
sS's.s.lai'
p2734
I3
sS'e.a.kellogg'
p2735
I1
sS'h.li'
p2736
I7
sS'f.d.bowers'
p2737
I2
sS'r.schust.'
p2738
I1
sS'rndelexd.f.murray'
p2739
I1
sS'a.huet'
p2740
I3
sS'c.i.peng'
p2741
I1
sS'markgr.'
p2742
I24
sS'z.kaplan'
p2743
I10
sS'l.c.li'
p2744
I1
sS'borbsexhausskn.'
p2745
I1
sS'becc.'
p2746
I19
sS'ehrh.exhoffm.'
p2747
I1
sS's.s.lar'
p2748
I1
sS't.v.moore'
p2749
I2
sS'nannf.'
p2750
I8
sS'c.s.gardner'
p2751
I1
sS'm.j.clark'
p2752
I1
sS'hort.lemoineexzabel'
p2753
I1
sS'e.santiago'
p2754
I1
sS'h.e.weber'
p2755
I3
sS'mayur.'
p2756
I2
sS'j.gay'
p2757
I8
sS'a.bols'
p2758
I8
sS'dc.exging.'
p2759
I1
sS'l.ll.phillips'
p2760
I2
sS'polg.'
p2761
I1
sS'bloemb.'
p2762
I13
sS'a.grayexj.m.coult.'
p2763
I1
sS'z.h.tsi'
p2764
I1
sS'turcz.'
p2765
I24
sS'wyatt-sm.'
p2766
I3
sS'with.'
p2767
I2
sS'u.c.bhattach.'
p2768
I2
sS'tiegh.'
p2769
I5
sS'turez.'
p2770
I1
sS'y.matsuda'
p2771
I3
sS'nied.'
p2772
I5
sS'mett.'
p2773
I3
sS'schleich.exgaudin'
p2774
I1
sS'e.morrenexmez'
p2775
I1
sS'w.w.jones'
p2776
I1
sS'l.c.anderson'
p2777
I13
sS't.y.yang'
p2778
I1
sS'ihlenf.'
p2779
I6
sS'vacc.'
p2780
I3
sS'kelloggexeastw.'
p2781
I1
sS'frnr.'
p2782
I1
sS'e.p.bicknell'
p2783
I8
sS'l.c.higgins'
p2784
I5
sS'makinoexh.ohba'
p2785
I1
sS'r.alonso'
p2786
I1
sS'w.t.davis'
p2787
I1
sS'r.l.oliv.'
p2788
I2
sS'c.c.wuexshan'
p2789
I1
sS'f.schulz'
p2790
I1
sS'p.m.thomson'
p2791
I1
sS'e.h.l.krause'
p2792
I1
sS'catalnexuribe-ech.'
p2793
I1
sS'kitch.'
p2794
I1
sS'"m.a.n.mll.'
p2795
I1
sS'a.cast.'
p2796
I1
sS's.rodr.salg.'
p2797
I1
sS's.moore'
p2798
I48
sS'miniss.'
p2799
I1
sS'adelb.'
p2800
I2
sS'stef.'
p2801
I13
sS'c.r.bell'
p2802
I3
sS'wallr.exhallier'
p2803
I1
sS'sol.exboott'
p2804
I1
sS'joythomps.'
p2805
I1
sS'fawc.'
p2806
I3
sS'r.m.bateman'
p2807
I8
sS'franch.exh.j.coste'
p2808
I1
sS'h.e.moore'
p2809
I19
sS'f.j.herm.'
p2810
I11
sS'g.mey.'
p2811
I2
sS'c.wrightexgriseb.'
p2812
I6
sS'r.a.gibson'
p2813
I1
sS'lindenexmast.'
p2814
I1
sS'c.f.liangexq.q.chang'
p2815
I1
sS'sol.'
p2816
I2
sS'y.x.lin'
p2817
I2
sS'czefr.'
p2818
I1
sS'douglasexlindl.'
p2819
I3
sS'j.farmer'
p2820
I1
sS's.o.grose'
p2821
I4
sS'l.c.chia'
p2822
I1
sS'richt.'
p2823
I1
sS'zonn.'
p2824
I6
sS'm.masclansdebolos'
p2825
I1
sS'm.kikuchi'
p2826
I1
sS'podp.'
p2827
I10
sS'm.p.devos'
p2828
I16
sS'devillers-tersch.'
p2829
I2
sS'kingexw.w.sm.'
p2830
I1
sS'p.kenney'
p2831
I6
sS'fenzlexboiss.'
p2832
I1
sS'b.ullrich'
p2833
I6
sS'e.walker'
p2834
I3
sS'c.d.bouch'
p2835
I2
sS'c.d.preston'
p2836
I2
sS'.nilsson'
p2837
I2
sS'j.raynalexd.a.simpson'
p2838
I1
sS'a.m.h.el-hadidy'
p2839
I1
sS'h.wolffexhand.-mazz.'
p2840
I1
sS'papaioann.'
p2841
I1
sS'welw.exmariz'
p2842
I1
sS'y.p.guo'
p2843
I2
sS'boiss.exleresche'
p2844
I2
sS'biancaexces.'
p2845
I1
sS'f.j.sm.'
p2846
I1
sS'kihlm.exhjelt'
p2847
I1
sS'castagneexdc.'
p2848
I1
sS'janch.exholub'
p2849
I1
sS'hochr.exj.britten'
p2850
I1
sS's.f.blake'
p2851
I50
sS'g.h.zhu'
p2852
I14
sS'brandisexkoord.'
p2853
I2
sS'o.abel'
p2854
I1
sS'tidestr.'
p2855
I4
sS'hort.exlange'
p2856
I1
sS'phil.exkraenzl.'
p2857
I1
sS'a.nelson'
p2858
I97
sS'chingexs.h.wu'
p2859
I1
sS'g.k.br.'
p2860
I2
sS'k.r.robertson'
p2861
I3
sS'a.f.carrillo'
p2862
I4
sS'k.schum.exengl.'
p2863
I1
sS'l.l.lu'
p2864
I2
sS'e.favre'
p2865
I1
sS'velen.'
p2866
I43
sS'besserexrchb.'
p2867
I2
sS'mereg.'
p2868
I4
sS'dsgl.'
p2869
I1
sS'hayataexooststr.'
p2870
I1
sS'labill.'
p2871
I2
sS's.sardineroroscales'
p2872
I1
sS'w.e.higgins'
p2873
I2
sS'coss.exnyman'
p2874
I1
sS'g.don'
p2875
I17
sS'j.parn.'
p2876
I7
sS'c.navarro'
p2877
I1
sS'j.rodr.salvador'
p2878
I1
sS'j.a.richt.'
p2879
I1
sS'hort.exjacques'
p2880
I1
sS'taub.'
p2881
I19
sS'j.s.martin'
p2882
I3
sS'b.e.dutton'
p2883
I9
sS'papan.'
p2884
I5
sS'wiinst.'
p2885
I4
sS'fern.alonso'
p2886
I10
sS'h.lv.ext.koyama'
p2887
I1
sS'd.j.bedford'
p2888
I1
sS'sookch.'
p2889
I1
sS'rivasmart.extalavera'
p2890
I1
sS'a.m.ferguson'
p2891
I2
sS'werderm.'
p2892
I6
sS'j.e.skog'
p2893
I1
sS'i.c.nielsen'
p2894
I15
sS'salzm.exdc.'
p2895
I1
sS'garn.-jones'
p2896
I1
sS'kingexd.oliv.'
p2897
I1
sS'h.s.kung'
p2898
I3
sS'l.d.danh'
p2899
I1
sS'c.y.ma'
p2900
I1
sS'hack.exbeck'
p2901
I1
sS'j.mundayined.'
p2902
I1
sS'ausserd.'
p2903
I1
sS'e.hossain'
p2904
I3
sS'chapm.exboott'
p2905
I1
sS'p.davis'
p2906
I1
sS'j.z.weber'
p2907
I4
sS'bong.'
p2908
I4
sS'l.j.chen'
p2909
I2
sS'c.gust.'
p2910
I1
sS'yatsk.'
p2911
I4
sS'liebm.'
p2912
I9
sS'an.kumar'
p2913
I1
sS'walk.'
p2914
I4
sS's.thomas'
p2915
I3
sS'g.lpez'
p2916
I35
sS'norl.'
p2917
I12
sS'ovcz.'
p2918
I4
sS'bordz.'
p2919
I6
sS'binn.'
p2920
I2
sS'n.a.murray'
p2921
I1
sS'klotzschexbaill.'
p2922
I1
sS'n.w.zinger'
p2923
I1
sS'g.r.zhong'
p2924
I1
sS'h.n.qin'
p2925
I4
sS'p.c.li'
p2926
I6
sS'sw.'
p2927
I7
sS'monv.exlabour.'
p2928
I1
sS'forest.exf.w.schultz'
p2929
I1
sS'jav.'
p2930
I1
sS'rchb.f.'
p2931
I87
sS'g.hallidayexgreuter'
p2932
I1
sS'k.mll.'
p2933
I1
sS'prjech.'
p2934
I1
sS'f.nyl.'
p2935
I7
sS'freudenst.'
p2936
I3
sS'e.j.butler'
p2937
I1
sS's.a.graham'
p2938
I7
sS'a.frhl.'
p2939
I2
sS'k.m.matthew'
p2940
I8
sS'willd.'
p2941
I62
sS'briq.'
p2942
I74
sS'zapal.'
p2943
I9
sS'e.a.durand'
p2944
I1
sS'e.g.h.oliv.'
p2945
I39
sS't.l.chinexd.y.hong'
p2946
I2
sS'g.s.giri'
p2947
I1
sS't.m.salter'
p2948
I5
sS'yalt.'
p2949
I10
sS'm.f.watson'
p2950
I5
sS'racib.'
p2951
I1
sS'jacq.-fl.exwickens'
p2952
I1
sS'a.d.poulsen'
p2953
I3
sS'guin.exgreuter'
p2954
I1
sS'hochst.exr.e.fr.'
p2955
I1
sS'rouyexwillk.'
p2956
I1
sS'n.h.williams'
p2957
I24
sS'f.c.how'
p2958
I2
sS'o.hoffm.exkuntze'
p2959
I1
sS's.w.liuext.n.ho'
p2960
I1
sS'c.w.james'
p2961
I1
sS'd.cole'
p2962
I1
sS'a.r.mitch.'
p2963
I1
sS'tratt.'
p2964
I3
sS'h.j.lam'
p2965
I7
sS'korth.'
p2966
I1
sS'g.j.campb.'
p2967
I1
sS'a.dietr.'
p2968
I5
sS'd.m.moore'
p2969
I2
sS'l.chuli'
p2970
I1
sS'r.carter'
p2971
I1
sS'w.l.theob.'
p2972
I3
sS'fern.casas'
p2973
I46
sS'm.schmid'
p2974
I7
sS'j.l.liu'
p2975
I3
sS'e.a.schwarz'
p2976
I3
sS'moric.exser.'
p2977
I1
sS'g.k.deka'
p2978
I1
sS'gasp.'
p2979
I1
sS'a.braunexc.chr.'
p2980
I1
sS'castrov.'
p2981
I5
sS'wolfg.'
p2982
I3
sS's.chow'
p2983
I1
sS'gren.'
p2984
I16
sS'gilg-ben.'
p2985
I1
sS'schrad.exdc.'
p2986
I1
sS'i.g.cohen'
p2987
I3
sS'c.e.jones'
p2988
I1
sS'aguil.'
p2989
I1
sS'm.mizush.'
p2990
I2
sS'torr.exbenth.'
p2991
I2
sS'c.h.uhl'
p2992
I1
sS'm.lainz'
p2993
I3
sS'karth.'
p2994
I4
sS'y.tang'
p2995
I3
sS'b.g.baldwin'
p2996
I7
sS'breistr.'
p2997
I17
sS'carioexcogn.'
p2998
I1
sS'wedd.exgriseb.'
p2999
I1
sS'l.z.shue'
p3000
I1
sS'n.i.malyutin'
p3001
I1
sS'f.h.hellw.'
p3002
I18
sS'towns.'
p3003
I1
sS'j.m.wood'
p3004
I1
sS'caig.'
p3005
I1
sS'hartm.'
p3006
I15
sS'rech.'
p3007
I7
sS'a.g.day'
p3008
I5
sS'd.b.ward'
p3009
I10
sS'orph.exboiss.'
p3010
I1
sS'a.e.vanwyk'
p3011
I5
sS'mart.exdc.'
p3012
I2
sS'w.k.hu'
p3013
I2
sS'a.l.primavesi'
p3014
I1
sS'scappat.'
p3015
I2
sS'p.j.braun'
p3016
I40
sS'dicks.'
p3017
I1
sS'ehrend.'
p3018
I80
sS'm.gerbaud'
p3019
I5
sS'w.r.anderson'
p3020
I6
sS'hort.exandrews'
p3021
I3
sS'm.c.vasey'
p3022
I2
sS'c.b.clarke'
p3023
I88
sS'j.yongzhang'
p3024
I1
sS'mildbr.'
p3025
I15
sS'c.v.morton'
p3026
I19
sS'm.frey'
p3027
I1
sS't.j.ayers'
p3028
I1
sS'holz.'
p3029
I3
sS'j.m.gillett'
p3030
I26
sS'a.j.hardyexb.s.williams'
p3031
I1
sS'y.s.lee'
p3032
I1
sS'vassilcz.'
p3033
I2
sS'n.wang'
p3034
I1
sS'krasch.expoljakov'
p3035
I1
sS'schweinf.'
p3036
I13
sS'b.r.baum'
p3037
I3
sS'poepp.exmart.'
p3038
I1
sS'e.mey.'
p3039
I16
sS'v.t.parker'
p3040
I2
sS'h.f.sm.'
p3041
I1
sS'hegelm.exlange'
p3042
I1
sS'r.a.baker'
p3043
I1
sS'bedd.'
p3044
I9
sS'o.bolos'
p3045
I1
sS'h.chuang'
p3046
I14
sS'l.rossi'
p3047
I1
sS'cay.'
p3048
I1
sS'munsonexl.h.bailey'
p3049
I1
sS'a.barreto'
p3050
I1
sS'hack.exkneuck.'
p3051
I1
sS'n.gibson'
p3052
I4
sS'p.t.li'
p3053
I1
sS'e.l.braun'
p3054
I1
sS'summerh.'
p3055
I33
sS'beurl.'
p3056
I1
sS'weing.'
p3057
I1
sS'd.j.carr'
p3058
I1
sS'b.nord."'
p3059
I12
sS'schleich.'
p3060
I1
sS'mart.ort.'
p3061
I1
sS'kosterm.'
p3062
I8
sS'k.hammer'
p3063
I2
sS'b.l.rob.exmillsp.'
p3064
I1
sS'engelm.extrel.'
p3065
I1
sS'p.b.kenn.'
p3066
I3
sS'm.roem.'
p3067
I1
sS'm.a.n.mll.'
p3068
I1
sS'crosswh.'
p3069
I1
sS'i.ramrez'
p3070
I2
sS'kaneh.'
p3071
I11
sS'r.r.gates'
p3072
I5
sS'r.j.johns'
p3073
I1
sS'muschl.'
p3074
I3
sS'p.h.huang'
p3075
I12
sS's.a.tansley'
p3076
I2
sS'y.z.wang'
p3077
I1
sS'a.kern.exhuter'
p3078
I1
sS'r.r.scott'
p3079
I1
sS'd.q.lu'
p3080
I1
sS'reut.'
p3081
I50
sS'd.c.daly'
p3082
I3
sS'w.a.rodrigues'
p3083
I1
sS'f.areces'
p3084
I1
sS'millsp.'
p3085
I7
sS'w.koch'
p3086
I2
sS't.g.hartley'
p3087
I5
sS'zinserl.'
p3088
I4
sS'a.dc.'
p3089
I25
sS'tangs.liu'
p3090
I2
sS'a.n.vassiljeva'
p3091
I1
sS'imkhan.'
p3092
I1
sS'maxim.exfranch.'
p3093
I2
sS'd.w.taylor'
p3094
I4
sS'h.melzer'
p3095
I3
sS'bisch.'
p3096
I1
sS'valdsberm.'
p3097
I7
sS'w.z.fang'
p3098
I2
sS'm.fisch.'
p3099
I1
sS'r.e.schult.'
p3100
I5
sS'k.y?ld?z'
p3101
I1
sS'e.a.bruce'
p3102
I7
sS'suksd.exsmall'
p3103
I1
sS'bg.'
p3104
I15
sS'hack.exboiss.'
p3105
I1
sS'friedr.'
p3106
I8
sS'j.dransf.'
p3107
I5
sS'k.w.tan'
p3108
I1
sS'eastw.'
p3109
I79
sS'd.a.simpson'
p3110
I8
sS'w.p.c.barton'
p3111
I1
sS'a.rojas'
p3112
I3
sS'callm.'
p3113
I1
sS'cogn.exrose'
p3114
I1
sS'g.d.wallace'
p3115
I1
sS'phil.exreiche'
p3116
I2
sS'f.d.wilson'
p3117
I3
sS'braun-blanq.'
p3118
I13
sS'mot.ito'
p3119
I6
sS'urb.'
p3120
I105
sS'r.l.hartman'
p3121
I1
sS'underw.exa.heller'
p3122
I1
sS'hallb.'
p3123
I3
sS'brack.'
p3124
I2
sS'h.le$av.'
p3125
I2
sS'kippistexmeisn.'
p3126
I1
sS'aitch.'
p3127
I2
sS'samp.'
p3128
I14
sS'j.h.willis'
p3129
I4
sS'molin.'
p3130
I1
sS'h.y.liu'
p3131
I8
sS'pamuk.'
p3132
I2
sS'y.t.zhao'
p3133
I1
sS'c.w.chi'
p3134
I1
sS'p.k.hsiao'
p3135
I4
sS'f.herm.'
p3136
I3
sS'j.a.schmidt'
p3137
I5
sS'o.e.schulz'
p3138
I60
sS'vved.'
p3139
I4
sS'k.s.hao'
p3140
I3
sS'c.b.clarkeexj.kost.'
p3141
I1
sS'k.m.wong'
p3142
I3
sS'c.c.chang'
p3143
I1
sS'vieill.expancher'
p3144
I1
sS'c.philbrick'
p3145
I1
sS'nutt.exdc.'
p3146
I1
sS'a.n.henry'
p3147
I1
sS'wess.boer'
p3148
I4
sS'zucc.'
p3149
I10
sS'e.morris'
p3150
I3
sS'a.raynal'
p3151
I4
sS'eichlerexmiq.'
p3152
I1
sS'r.l.hartm.'
p3153
I39
sS's.w.gale'
p3154
I1
sS's.c.chen'
p3155
I21
sS'worth.'
p3156
I1
sS'e.nardi'
p3157
I1
sS'"s.ortiz'
p3158
I3
sS'standl.expayson'
p3159
I1
sS'a.neumannexb.walln.'
p3160
I1
sS'macfad.'
p3161
I2
sS'g.l.davis'
p3162
I2
sS'sieberexdc.'
p3163
I1
sS'turcz.exv.i.krecz.'
p3164
I1
sS'f.g.mey.'
p3165
I5
sS'pan?i?exa.kern.'
p3166
I1
sS'wall.exchoisy'
p3167
I1
sS'm.p.grasso'
p3168
I2
sS'f.albers'
p3169
I1
sS'chingexp.s.wang'
p3170
I1
sS'sieberexrchb.'
p3171
I1
sS'y.endo'
p3172
I1
sS'j.z.wang'
p3173
I1
sS's.l.liang'
p3174
I1
sS'morettiexdc.'
p3175
I1
sS'e.rev.exhervier'
p3176
I1
sS'w.z.li'
p3177
I1
sS'h.g.sm.'
p3178
I7
sS'g.h.chen'
p3179
I1
sS'krassiln.'
p3180
I1
sS'schnittsp.'
p3181
I1
sS'paol.'
p3182
I1
sS'w.t.ji'
p3183
I1
sS'j.-m.tison'
p3184
I2
sS'a.m.luexc.y.wu'
p3185
I1
sS'b.c.tan'
p3186
I1
sS'a.moon'
p3187
I1
sS'p.l.chiu'
p3188
I1
sS'pawl>l.'
p3189
I1
sS'hieron.exlillo'
p3190
I1
sS'e.g.camusexcortesi'
p3191
I1
sS'hildebr.exrock'
p3192
I1
sS'd.m.hend.'
p3193
I1
sS'l.a.johnson'
p3194
I4
sS'appenz.'
p3195
I1
sS'hausskn.exbornm.'
p3196
I7
sS'durieuexboiss.'
p3197
I2
sS'karthik.'
p3198
I5
sS'fourr.'
p3199
I10
sS'baill.'
p3200
I40
sS'n.e.mercadal'
p3201
I1
sS'crp.'
p3202
I1
sS't.h.nguyn'
p3203
I1
sS'kitag.'
p3204
I46
sS'carruth.'
p3205
I1
sS'k.i.chr.'
p3206
I13
sS'r.luz'
p3207
I1
sS'trevir.'
p3208
I1
sS'h.sund.'
p3209
I2
sS'turcz.exdc.'
p3210
I2
sS'hungt.chung'
p3211
I1
sS'k.brandegee'
p3212
I1
sS'scischk.exsobolevsk.'
p3213
I1
sS'j.b.norton'
p3214
I1
sS'stenstr.'
p3215
I1
sS'degl.'
p3216
I1
sS'a.r.molina'
p3217
I1
sS'e.mey.exbartl.'
p3218
I1
sS'heldr.exhalcsy'
p3219
I4
sS'coss.exhook.f.'
p3220
I1
sS'c.j.burrows'
p3221
I4
sS'r.dahlgren'
p3222
I31
sS'e.d.br.'
p3223
I1
sS'a.r.claphamexlaegaard'
p3224
I1
sS'd.n.gibson'
p3225
I2
sS'r.c.jacks.'
p3226
I2
sS'j.d.venter'
p3227
I2
sS'o.muiz'
p3228
I14
sS'l.d.bensonexstandl.'
p3229
I1
sS'f.n.rasm.'
p3230
I1
sS'a.p.fontana'
p3231
I1
sS'l.m.perry'
p3232
I15
sS'a.m.carvalho'
p3233
I1
sS'symingtonexm.r.hend.'
p3234
I1
sS't.b.zhao'
p3235
I1
sS'g.lodd.'
p3236
I2
sS'a.j.li'
p3237
I7
sS'thongp.'
p3238
I1
sS'hazsl.'
p3239
I2
sS'c.y.wuexy.l.chen'
p3240
I2
sS'l.chilton'
p3241
I2
sS'd.mll.-doblies'
p3242
I12
sS'readexl.b.sm.'
p3243
I1
sS'm.b.foster'
p3244
I1
sS'm.johnson'
p3245
I1
sS'momiy.'
p3246
I8
sS'gomb.'
p3247
I1
sS'pav.exg.don'
p3248
I1
sS'par.singh'
p3249
I1
sS'a.grayextorr.'
p3250
I1
sS'e.l.cabral'
p3251
I3
sS'j.philippow'
p3252
I1
sS'schmalh.'
p3253
I4
sS'r.m.k.saunders'
p3254
I7
sS'c.m.kuo'
p3255
I3
sS'y.h.huang'
p3256
I2
sS'lauterb.'
p3257
I5
sS'l.c.wheeler'
p3258
I2
sS'n.tanaka'
p3259
I2
sS'meinsh.'
p3260
I6
sS'e.york'
p3261
I1
sS'c.chr.exching'
p3262
I1
sS'l.chen'
p3263
I2
sS'c.marquand'
p3264
I15
sS't.d.macfarl.'
p3265
I2
sS'p.castro'
p3266
I1
sS'j.m.pizarro'
p3267
I1
sS'd.e.anderson'
p3268
I1
sS'w.stearns'
p3269
I1
sS't.c.andres'
p3270
I1
sS'y.l.liu'
p3271
I1
sS'r.i.milne'
p3272
I1
sS'f.g.meyer'
p3273
I1
sS'woronowexpobed.'
p3274
I1
sS'pasq.'
p3275
I1
sS'miq.'
p3276
I87
sS'm.e.ferguson'
p3277
I2
sS'l.g.adams'
p3278
I7
sS'a.c.sm.'
p3279
I29
sS'etal.'
p3280
I2
sS'j.j.dewilde'
p3281
I3
sS'stockw.'
p3282
I2
sS't.i.chuang'
p3283
I33
sS'l.o.williams'
p3284
I27
sS'hoffm.'
p3285
I2
sS'lern.'
p3286
I1
sS'k.martinsson'
p3287
I1
sS'e.cooper'
p3288
I1
sS'y.z.pan'
p3289
I1
sS'j.m.lewin'
p3290
I2
sS'hedl.'
p3291
I3
sS'night.'
p3292
I1
sS'franch.exhemsl.'
p3293
I1
sS'wern.schulze'
p3294
I2
sS'w.deane'
p3295
I2
sS'f.wettst.'
p3296
I1
sS'zimmerm.'
p3297
I1
sS'chiov.exbremek.'
p3298
I1
sS's.l.liou'
p3299
I3
sS'uechtr.'
p3300
I2
sS's.agarwal'
p3301
I1
sS'y.j.nasir'
p3302
I13
sS'c.z.gao'
p3303
I1
sS'drfl.exzahn'
p3304
I1
sS'l.cano'
p3305
I1
sS'fraser-jenk.'
p3306
I18
sS'l.linden'
p3307
I2
sS'q.y.xiang'
p3308
I13
sS'praub.'
p3309
I1
sS'dielsexa.berger'
p3310
I1
sS'v.a.matthews'
p3311
I3
sS'r.c.koeppen'
p3312
I6
sS's.r.zhang'
p3313
I2
sS'a.m.phillips'
p3314
I1
sS'h.zhu'
p3315
I7
sS'vorosch.'
p3316
I14
sS'a.t.richardson'
p3317
I1
sS'kitam.exkitam.'
p3318
I1
sS'e.a.shaw'
p3319
I2
sS'boiss.exdecne.'
p3320
I1
sS'm.n.tamura'
p3321
I4
sS'h.b.will.'
p3322
I1
sS'p.winter'
p3323
I1
sS's.kurosaki'
p3324
I1
sS'r.a.grah.'
p3325
I2
sS'gonz.gigel'
p3326
I1
sS't.macdoug.'
p3327
I1
sS'b.nord.'
p3328
I44
sS'schnb.-tem.'
p3329
I14
sS'd.m.verma'
p3330
I2
sS'thunb.'
p3331
I17
sS'a.f.mitchell'
p3332
I2
sS'f.chiang'
p3333
I1
sS'alv.fern.'
p3334
I3
sS'h.h.hsue'
p3335
I1
sS'cambess.exlauener'
p3336
I1
sS'h.p.fuchs'
p3337
I1
sS'stevenexm.bieb.'
p3338
I1
sS'borchs.'
p3339
I5
sS'a.r.o.chapm.'
p3340
I3
sS'clem.'
p3341
I13
sS'h.sund.exh.kretzschmar'
p3342
I1
sS'hook.'
p3343
I95
sS'm.a.lane'
p3344
I3
sS't.durand'
p3345
I15
sS'h.d.harr.'
p3346
I2
sS'h.kubota'
p3347
I1
sS'a.weeks'
p3348
I1
sS'cossonexbattand.'
p3349
I1
sS'j.w.robbins'
p3350
I2
sS'f.muell.exhook.'
p3351
I1
sS'plitm.'
p3352
I1
sS'm.bayer'
p3353
I3
sS'heinrichexbackeb.'
p3354
I1
sS's.kelso'
p3355
I3
sS'g.a.fu'
p3356
I2
sS'rouw.'
p3357
I2
sS'schwer.'
p3358
I1
sS'burv.'
p3359
I1
sS'hacq.'
p3360
I1
sS'n.w.simmonds'
p3361
I5
sS'alexanderexh.e.moore'
p3362
I1
sS'g.navarro'
p3363
I7
sS'z.x.zhang'
p3364
I2
sS'm.f.fay'
p3365
I1
sS'dallim.'
p3366
I3
sS'lindl.exdc.'
p3367
I2
sS'k.c.hsia'
p3368
I2
sS'h.pearsonexking'
p3369
I1
sS'g.j.charles'
p3370
I13
sS'hand.-mazz.'
p3371
I99
sS'g.t.nisbet'
p3372
I2
sS'k.v.ivanova'
p3373
I1
sS'j.k.henry'
p3374
I3
sS'hort.exvanhoutte'
p3375
I1
sS'e.b.alexeev'
p3376
I1
sS'donn.sm.'
p3377
I8
sS'p.ke'
p3378
I1
sS'c.steinb.'
p3379
I1
sS's.p.darwin'
p3380
I2
sS'bucq.'
p3381
I1
sS'y.l.chen'
p3382
I11
sS'a.h.gentry'
p3383
I6
sS'j.r.haller'
p3384
I1
sS'd.j.middleton'
p3385
I4
sS'r.j.moore'
p3386
I3
sS'm.bywater'
p3387
I5
sS'p.w.fritsch'
p3388
I3
sS't.h.wen'
p3389
I1
sS'e.r.harrison'
p3390
I1
sS'c.l.schmidt'
p3391
I13
sS'wallr.'
p3392
I7
sS'c.e.hughes'
p3393
I2
sS'w.w.sm.'
p3394
I63
sS'i.a.penna'
p3395
I1
sS'j.mige'
p3396
I1
sS'e.nelson'
p3397
I7
sS'p.brckn.'
p3398
I1
sS'e.figueiredo'
p3399
I1
sS'quisumb.'
p3400
I2
sS'a.davis'
p3401
I1
sS'hid.takah.'
p3402
I2
sS'c.alibertis'
p3403
I4
sS'kraenzl.exschltr.'
p3404
I1
sS'wall.exkunze'
p3405
I1
sS'x.h.song'
p3406
I1
sS'p.p.ling'
p3407
I1
sS'frid.'
p3408
I1
sS'r.c.cooper'
p3409
I1
sS'o.danesch'
p3410
I16
sS'wo?.'
p3411
I8
sS'e.forst.'
p3412
I1
sS'p.delforge'
p3413
I32
sS'labill.exrumph.'
p3414
I1
sS'jum.'
p3415
I6
sS'r.j.bates'
p3416
I3
sS'z.s.rogers'
p3417
I1
sS'h.w.li'
p3418
I13
sS'f.dvo?k'
p3419
I18
sS'regel.'
p3420
I1
sS'vzq.-ben.'
p3421
I1
sS'h.h.chapm.'
p3422
I1
sS'katzn.'
p3423
I1
sS'r.f.huang'
p3424
I1
sS't.simon'
p3425
I2
sS'barb.-gamp.'
p3426
I1
sS'v.m.vinogr.'
p3427
I1
sS'j.gmez'
p3428
I1
sS'j.y.luo'
p3429
I1
sS'h.lindb.exkirschner'
p3430
I1
sS'w.lippert'
p3431
I3
sS'bonpl.exchoisy'
p3432
I1
sS'vell.'
p3433
I5
sS'w.c.taylor'
p3434
I1
sS'd.m.porter'
p3435
I4
sS'g.s.varad.'
p3436
I1
sS'kaspar.'
p3437
I2
sS'r.m.sm.'
p3438
I2
sS'savign.'
p3439
I1
sS'langenh.'
p3440
I5
sS'a.schulz'
p3441
I1
sS'j.e.bohlin'
p3442
I2
sS'f.schmidtexkitam.'
p3443
I1
sS'nakaiext.kawamoto'
p3444
I1
sS'r.j.davis'
p3445
I1
sS'.strid'
p3446
I5
sS'bab.'
p3447
I7
sS'm.w.turner'
p3448
I1
sS'knowlt.'
p3449
I1
sS'c.bicknell'
p3450
I3
sS'ronnigerexlitard.'
p3451
I1
sS'e.wimm.'
p3452
I8
sS'g.gilbert'
p3453
I1
sS'm.henkel'
p3454
I1
sS'sch.bip.exwalp.'
p3455
I1
sS'kneuck.'
p3456
I2
sS'y.z.sunexc.h.hu'
p3457
I1
sS't.s.liu'
p3458
I2
sS'j.a.clevinger'
p3459
I4
sS'e.m.mcclint.'
p3460
I7
sS'heldr.exdegen'
p3461
I1
sS'glic.'
p3462
I1
sS'j.m.rattray'
p3463
I1
sS'eckl.'
p3464
I25
sS'k.h.shing'
p3465
I5
sS'p.silva'
p3466
I18
sS't.s.collinsexh.l.white'
p3467
I1
sS'l.marchand'
p3468
I1
sS'krestovsk.'
p3469
I2
sS'e.g.a.hooper'
p3470
I1
sS'm.r.li'
p3471
I1
sS'smallexrydb.'
p3472
I3
sS'esterh.'
p3473
I1
sS'r.v.valmayor'
p3474
I3
sS'harv.'
p3475
I42
sS'ulineexr.knuth'
p3476
I3
sS'sol.exaiton'
p3477
I1
sS's.y.zhao'
p3478
I1
sS'l.triest'
p3479
I2
sS'kriechb.'
p3480
I1
sS'azn.'
p3481
I3
sS'marc.-ferr.'
p3482
I2
sS'm.a.rau'
p3483
I1
sS'peterm.'
p3484
I5
sS'o.f.mll.'
p3485
I3
sS'c.f.liang'
p3486
I3
sS'k.y.pan'
p3487
I9
sS'j.g.west'
p3488
I3
sS'boissev.'
p3489
I1
sS'garca-mur.'
p3490
I2
sS'p.r.o.bally'
p3491
I11
sS'kir.'
p3492
I7
sS'casar.'
p3493
I1
sS'y.j.tan'
p3494
I1
sS'verl.'
p3495
I1
sS'soy.-will.exgodr.'
p3496
I1
sS'b.s.williams'
p3497
I2
sS'g.chandler'
p3498
I1
sS'k.wagner'
p3499
I1
sS'j.black'
p3500
I2
sS'f.kovts'
p3501
I1
sS'k.s.haoexc.f.fang'
p3502
I3
sS'l.e.navas'
p3503
I2
sS'yoshik.'
p3504
I2
sS'michx.exdc.'
p3505
I1
sS'm.n.correa'
p3506
I1
sS'a.cunn.exendl.'
p3507
I1
sS'd.tyteca'
p3508
I6
sS's.b.liang'
p3509
I1
sS'mucherexstarm.'
p3510
I1
sS'f.h.lewis'
p3511
I1
sS'l.a.standl.'
p3512
I4
sS'h.boissieu'
p3513
I4
sS'n.l.mey.'
p3514
I1
sS'r.r.haynes'
p3515
I6
sS'g.y.luo'
p3516
I1
sS'c.c.chinnappa'
p3517
I1
sS'j.p.bailey'
p3518
I1
sS'a.ortega'
p3519
I1
sS'g.z.qian'
p3520
I2
sS'l.b.sm.'
p3521
I83
sS'y.m.shui'
p3522
I2
sS'w.wightexm.peck'
p3523
I1
sS'g.eberle'
p3524
I2
sS'e.l.braunexfriesen'
p3525
I1
sS'f.w.brandt'
p3526
I1
sS'hegetschw.'
p3527
I5
sS'a.rodr.'
p3528
I1
sS'm.koch'
p3529
I5
sS'wassh.'
p3530
I3
sS'm.escudero'
p3531
I2
sS'g.kretzschmar'
p3532
I2
sS'sch.bip.exmiq.'
p3533
I1
sS'z.x.peng'
p3534
I1
sS't.c.ku'
p3535
I11
sS'haw.'
p3536
I23
sS'j.gayexgaudin'
p3537
I2
sS'a.fern.'
p3538
I19
sS'g.a.mulligan'
p3539
I4
sS'f.oliveir'
p3540
I1
sS'rob.'
p3541
I2
sS'mich.mller'
p3542
I9
sS'warb.exmildbr.'
p3543
I1
sS'tatew.'
p3544
I12
sS'petitm.'
p3545
I8
sS'a.f.w.schmidt'
p3546
I3
sS'ittenb.exgovaerts'
p3547
I4
sS'f.valle'
p3548
I1
sS'c.m.taylor'
p3549
I13
sS's.s.chien'
p3550
I2
sS'g.s.bhatn.'
p3551
I1
sS'g.bartsch'
p3552
I1
sS'lem.'
p3553
I12
sS'sint.'
p3554
I11
sS'malv.fabre'
p3555
I1
sS'r.wilczek'
p3556
I11
sS'p.niels.exlange'
p3557
I1
sS'nob.tanaka'
p3558
I1
sS'p.woods'
p3559
I10
sS'p.wolff'
p3560
I1
sS'b.walln.'
p3561
I2
sS'm.g.stewart'
p3562
I1
sS'w.o.moore'
p3563
I1
sS'o.berg'
p3564
I12
sS'stoff.'
p3565
I2
sS'm.l.bowerman'
p3566
I1
sS'j.j.wood'
p3567
I19
sS'stapfexhook.f.'
p3568
I1
sS'a.grayexbenth.'
p3569
I1
sS'yuenp.yang'
p3570
I3
sS'n.friesen'
p3571
I1
sS'e.james'
p3572
I1
sS'lam.'
p3573
I37
sS'r.crook'
p3574
I1
sS'sam.exrech.f.'
p3575
I1
sS'o.w.knight'
p3576
I2
sS'koord.'
p3577
I7
sS'n.f.mattos'
p3578
I5
sS'bonpl.exwilld.'
p3579
I1
sS'a.cunn.exmiq.'
p3580
I1
sS'p.f.stevens'
p3581
I17
sS'w.schaffn.exfe'
p3582
I1
sS'salzm.exdelile'
p3583
I1
sS'j.agardh'
p3584
I3
sS't.b.lee'
p3585
I4
sS'pickeringextorr.'
p3586
I1
sS'sart.'
p3587
I2
sS'f.muell.exrchb.f.'
p3588
I1
sS'finschowexg.kunkel'
p3589
I1
sS'filat.'
p3590
I1
sS'greeneexa.gray'
p3591
I1
sS'makinoexkitam.'
p3592
I1
sS'v.t.rodrigues'
p3593
I1
sS'jacquem.'
p3594
I1
sS'f.l.martin'
p3595
I5
sS'a.b.lau'
p3596
I12
sS'schleich.exdc.'
p3597
I2
sS'z.daz'
p3598
I5
sS's.b.jones'
p3599
I2
sS'b.-e.vanwyk'
p3600
I12
sS'vierh.'
p3601
I12
sS'e.f.anderson'
p3602
I6
sS'c.wrightexradlk.'
p3603
I1
sS'l.chevall.'
p3604
I2
sS'hegelm.exa.kern.'
p3605
I1
sS'p.d.devilliers'
p3606
I1
sS'f.e.l.miranda'
p3607
I6
sS'h.st.john'
p3608
I65
sS'j.m.bigelow'
p3609
I10
sS'h.y.su'
p3610
I1
sS'arcang.'
p3611
I60
sS'a.e.murray'
p3612
I48
sS's.m.phillips'
p3613
I8
sS'l.a.s.johnson'
p3614
I35
sS'h.f.zhouexc.yungchang'
p3615
I4
sS't.cooke'
p3616
I2
sS'v.skalicky'
p3617
I1
sS'c.d.adams'
p3618
I8
sS'gehrm.'
p3619
I1
sS'tronc.'
p3620
I1
sS'horn.'
p3621
I1
sS'd.s.conant'
p3622
I1
sS'e.m.a.petit'
p3623
I17
sS'a.l.budantsev'
p3624
I8
sS'h.wagner'
p3625
I1
sS'mart.exschult.'
p3626
I1
sS'snchezlos.'
p3627
I1
sS's.kumar'
p3628
I5
sS'chunexc.y.wu'
p3629
I1
sS'huexh.f.chow'
p3630
I1
sS'w.m.rogers'
p3631
I1
sS'd.l.johnson'
p3632
I2
sS'ivan.'
p3633
I1
sS'f.phil.'
p3634
I1
sS'w.bull'
p3635
I2
sS'peteign.'
p3636
I1
sS'r.l.thompson'
p3637
I3
sS'r.erikss.'
p3638
I2
sS'l.'
p3639
I104
sS'groenew.'
p3640
I1
sS'a.cunn.exbenth.'
p3641
I3
sS'd.m.cameron'
p3642
I1
sS'novopokr.'
p3643
I2
sS'nutt.expiper'
p3644
I1
sS'bernh.'
p3645
I3
sS's.vidal'
p3646
I2
sS'franch.exf.b.forbes'
p3647
I1
sS'digrist.'
p3648
I3
sS'wahlenb.'
p3649
I15
sS'meisn.exa.dc.'
p3650
I2
sS'hanst.'
p3651
I2
sS'pilzexd.j.keil'
p3652
I1
sS'botschantz.'
p3653
I1
sS'j.rousseau'
p3654
I3
sS'whittem.'
p3655
I1
sS'fisch.exdc.'
p3656
I2
sS'a.camus'
p3657
I53
sS'eckenw.'
p3658
I4
sS'peterg.wilson'
p3659
I1
sS'h.peng'
p3660
I1
sS'x.gong'
p3661
I1
sS'b.hansen'
p3662
I7
sS'w.c.ye'
p3663
I1
sS'r.w.benn.'
p3664
I1
sS'c.l.hitchc.'
p3665
I70
sS'schleich.exheimerl'
p3666
I1
sS'poepp.exkunth'
p3667
I1
sS'zhiy.zhang'
p3668
I9
sS'g.y?lmaz'
p3669
I1
sS'j.w.voss'
p3670
I2
sS'hort.expetz.'
p3671
I3
sS'j.v.suringar'
p3672
I2
sS'w.a.weber'
p3673
I14
sS'l.guthrie'
p3674
I2
sS'a.k.skvortsov'
p3675
I12
sS'rapinexreut.'
p3676
I1
sS'h.dietr.'
p3677
I37
sS'p.bruyns'
p3678
I1
sS'moric.'
p3679
I2
sS'w.schmid'
p3680
I2
sS'm.t.kao'
p3681
I1
sS'j.braun'
p3682
I1
sS's.l.hatch'
p3683
I1
sS'e.c.nelson'
p3684
I1
sS'barb.rodr.'
p3685
I10
sS's.y.tang'
p3686
I1
sS'w.h.baker'
p3687
I1
sS'g.fabre'
p3688
I2
sS'h.e.gates'
p3689
I4
sS'p.a.gonzlez'
p3690
I2
sS'i.mll.'
p3691
I2
sS'g.will.'
p3692
I3
sS'm.p.stoeva'
p3693
I1
sS'engelm.exj.m.coult.'
p3694
I3
sS'a.meeuse'
p3695
I3
sS'klotzschexbenth.'
p3696
I3
sS'g.n.jones'
p3697
I6
sS'h.j.hodgs.'
p3698
I2
sS'b.r.silva'
p3699
I2
sS'o.e.warb.'
p3700
I1
sS'p.prez'
p3701
I26
sS'dandyexnoot.'
p3702
I1
sS'j.c.wendl.'
p3703
I3
sS'y.f.wu'
p3704
I3
sS'ces.'
p3705
I6
sS't.navarro'
p3706
I5
sS'oberm.'
p3707
I17
sS'hort.exw.bull'
p3708
I1
sS'farw.'
p3709
I22
sS'j.s.pringle'
p3710
I6
sS'juz.'
p3711
I31
sS'v.e.grant'
p3712
I16
sS'rchb.'
p3713
I22
sS's.y.cheo'
p3714
I2
sS'murb.'
p3715
I38
sS's.y.hu'
p3716
I26
sS'orph.'
p3717
I6
sS'y.c.wu'
p3718
I2
sS'welw.exbaker'
p3719
I2
sS'j.g.costa'
p3720
I1
sS'c.h.wrightexbaker'
p3721
I1
sS'y.y.fang'
p3722
I5
sS'pall.'
p3723
I8
sS'e.m.benn.'
p3724
I8
sS't.l.ming'
p3725
I46
sS'hadjik.'
p3726
I1
sS'd.s.hardy'
p3727
I3
sS'st.cloud'
p3728
I2
sS's.puech'
p3729
I4
sS'f.h.perring'
p3730
I1
sS'walp.'
p3731
I6
sS'zahar.'
p3732
I6
sS'r.t.penn.'
p3733
I1
sS'a.weber'
p3734
I12
sS'c.b.clarkeexkk.'
p3735
I1
sS'stojan.'
p3736
I1
sS'speg.'
p3737
I11
sS'h.t.chang'
p3738
I12
sS'jeanm.'
p3739
I7
sS'cherm.'
p3740
I13
sS'i.riedl'
p3741
I3
sS's.d.manning'
p3742
I1
sS'r.c.moran'
p3743
I10
sS'c.delforge'
p3744
I1
sS'j.r.abbott'
p3745
I4
sS'maxim.exkusn.'
p3746
I1
sS'c.c.yang'
p3747
I1
sS'w.s.flory'
p3748
I1
sS'a.rutherf.'
p3749
I1
sS'melch.'
p3750
I2
sS'harv.exf.c.wilson'
p3751
I1
sS'niclugh.'
p3752
I1
sS'nakaiexh.it'
p3753
I1
sS'r.chan'
p3754
I2
sS'kiaersk.'
p3755
I2
sS'monach.'
p3756
I6
sS'pourr.'
p3757
I4
sS'?erb.'
p3758
I1
sS't.t.yu'
p3759
I31
sS'g.morales'
p3760
I3
sS'jacq.exlindl.'
p3761
I1
sS'r.r.sm.'
p3762
I1
sS'snethl.'
p3763
I1
sS'nakaiexkitag.'
p3764
I1
sS'w.z.di'
p3765
I1
sS'andrz.exledeb.'
p3766
I2
sS'schischk.'
p3767
I9
sS'johanss.'
p3768
I2
sS'l.m.ma'
p3769
I2
sS'g.lom.sm.'
p3770
I1
sS'w.c.cheng'
p3771
I22
sS'zabelexk.i.chr.'
p3772
I1
sS'p.k.holmgren'
p3773
I3
sS'k.fowler'
p3774
I1
sS'l.r.parra'
p3775
I8
sS'd.c.zhang'
p3776
I1
sS'j.h.painter'
p3777
I1
sS'nutt.extorr.'
p3778
I9
sS'hilg.'
p3779
I1
sS'parryexa.gray'
p3780
I1
sS'delaub.'
p3781
I8
sS'h.kurze'
p3782
I2
sS'hort.exhanst.'
p3783
I1
sS'f.y.lu'
p3784
I2
sS'd.m.spooner'
p3785
I5
sS'sendtn.'
p3786
I1
sS'e.j.palmerexrehder'
p3787
I1
sS'leechm.'
p3788
I1
sS'j.d.briggs'
p3789
I1
sS'y.t.wei'
p3790
I3
sS'm.e.jones'
p3791
I99
sS'd.mantellexpuff'
p3792
I1
sS'arechav.'
p3793
I4
sS'foxw.'
p3794
I2
sS'p.s'
p3795
I1
sS'r.br.ter'
p3796
I1
sS'k.perss.'
p3797
I4
sS'mast.'
p3798
I17
sS's.d.jones'
p3799
I1
sS'sncl.'
p3800
I1
sS'e.rev.'
p3801
I2
sS'j.w.vossexmunz'
p3802
I1
sS'y.t.chang'
p3803
I6
sS'vis.'
p3804
I14
sS'st.john'
p3805
I3
sS'j.m.blackexeardley'
p3806
I1
sS'g.l.esteves'
p3807
I1
sS's.d.webster'
p3808
I1
sS'p.e.gibbs'
p3809
I7
sS'a.heller'
p3810
I45
sS'r.bhattacharjee'
p3811
I7
sS's.a.l.sm.'
p3812
I1
sS'j.c.clausen'
p3813
I2
sS'c.davis'
p3814
I4
sS's.ramos'
p3815
I1
sS'r.b.drumm.'
p3816
I3
sS'rodr.oubia"'
p3817
I3
sS'vis.exrchb.'
p3818
I1
sS'a.p.br.'
p3819
I44
sS'c.graves'
p3820
I1
sS'a.lthy'
p3821
I5
sS'pott.-alap.exgreuter'
p3822
I1
sS'm.broun'
p3823
I2
sS'szyszy?.'
p3824
I1
sS'hort.angl.exregel'
p3825
I1
sS'l.laurent'
p3826
I1
sS'greeneexkusn.'
p3827
I1
sS'a.braun'
p3828
I9
sS'c.wang'
p3829
I15
sS't.hong'
p3830
I2
sS'b.f.hansen'
p3831
I5
sS'pestal.'
p3832
I1
sS'sarnth.'
p3833
I17
sS'h.mann'
p3834
I5
sS't.koyama'
p3835
I87
sS'j.raynal'
p3836
I5
sS'f.wolf'
p3837
I1
sS'"k.c.sahni'
p3838
I1
sS'r.wilczekexn.hall'
p3839
I1
sS'c.l.yeh'
p3840
I1
sS'e.f.warb.'
p3841
I2
sS'e.small'
p3842
I1
sS'm.w.mcdonald'
p3843
I5
sS'd.f.chamb.'
p3844
I59
sS'd.k.ferguson'
p3845
I2
sS'jv.exkiss'
p3846
I1
sS'v.jirasek'
p3847
I1
sS'j.o.sawyer'
p3848
I1
sS'a.kern.exjanch.'
p3849
I2
sS'cham.exsteud.'
p3850
I1
sS'y.ling'
p3851
I3
sS'sugim.'
p3852
I5
sS'mill.'
p3853
I17
sS'm.j.wu'
p3854
I1
sS'amerh.'
p3855
I1
sS'brittonexstandl.'
p3856
I1
sS'l.p.m.willemse'
p3857
I2
sS'roshev.exnevski'
p3858
I1
sS'r.g.garcia'
p3859
I1
sS'v.a.nikitin'
p3860
I1
sS'w.f.barkerexm.b.bayer'
p3861
I1
sS'g.s.bunting'
p3862
I7
sS'pav.'
p3863
I7
sS'havil.'
p3864
I1
sS'gideonf.sm.'
p3865
I1
sS'g.yang'
p3866
I3
sS'l.c.menezes'
p3867
I11
sS'kellererexsnd.'
p3868
I1
sS'r.engel'
p3869
I1
sS'c.b.lehm.'
p3870
I1
sS'mattf.'
p3871
I12
sS'gilliesexhook.'
p3872
I2
sS'buch.-ham.'
p3873
I2
sS'a.m.evans'
p3874
I2
sS'k.g.lacerda'
p3875
I6
sS'f.a.philbrickexa.h.kent'
p3876
I1
sS'bakh.f.'
p3877
I8
sS't.moore'
p3878
I4
sS'fedtsch.'
p3879
I1
sS'chrshan.'
p3880
I1
sS'r.rankin'
p3881
I9
sS'.lve'
p3882
I36
sS'ridl.exengl.'
p3883
I2
sS'robill.'
p3884
I1
sS'f.proch.'
p3885
I1
sS'roxb.exhornem.'
p3886
I1
sS's.c.ko'
p3887
I1
sS'deboerexs.a.hammer'
p3888
I1
sS'h.l.wendl.'
p3889
I1
sS'c.h.wright'
p3890
I13
sS'c.vural'
p3891
I1
sS'reut.exfreyn'
p3892
I1
sS'dc.extriana'
p3893
I1
sS'm.lowry'
p3894
I12
sS'c.b.rob.'
p3895
I1
sS'g.e.crow'
p3896
I4
sS'aucherexbenth.'
p3897
I2
sS'w.hempel'
p3898
I1
sS'zeyh.'
p3899
I24
sS'h.till'
p3900
I4
sS'kit.'
p3901
I15
sS'j.-p.lebrun'
p3902
I2
sS'pass.'
p3903
I2
sS'e.b.knox'
p3904
I8
sS'n.terracc.'
p3905
I1
sS'v.c.souza'
p3906
I3
sS'tatew.exj.samej.'
p3907
I2
sS'szweyk.'
p3908
I1
sS'rosend.'
p3909
I21
sS's.hul'
p3910
I3
sS'rydb.'
p3911
I217
sS'c.j.chen'
p3912
I20
sS'featherm.'
p3913
I1
sS'douglasextorr.'
p3914
I1
sS'h.lewis'
p3915
I1
sS'c.saenz'
p3916
I1
sS'e.s.burgessexburgess'
p3917
I1
sS'koop.'
p3918
I2
sS'j.w.mast.'
p3919
I1
sS'irj.'
p3920
I5
sS'bartl.exdc.'
p3921
I1
sS'wiesb.'
p3922
I4
sS'n.h.xia'
p3923
I2
sS'a.h.kent'
p3924
I1
sS'merr.'
p3925
I88
sS'x.m.wang'
p3926
I2
sS'c.o.lehm.'
p3927
I1
sS'j.j.a.vanderwalt'
p3928
I2
sS'schwein.'
p3929
I1
sS'j.meyrn'
p3930
I3
sS't.tyler'
p3931
I1
sS'a.l.lamb'
p3932
I1
sS'm.jacobs'
p3933
I9
sS'h.rasm.'
p3934
I5
sS'hern.-berm.'
p3935
I1
sS't.tang'
p3936
I2
sS'p.hein'
p3937
I1
sS'maier-st.'
p3938
I2
sS'grav.'
p3939
I1
sS'h.t.tsai'
p3940
I2
sS's.x.qian'
p3941
I1
sS'ehrenb.exdecne.'
p3942
I1
sS'h.d.zhang'
p3943
I1
sS'n.p.singh'
p3944
I2
sS'limpr.'
p3945
I1
sS'c.ehrh.'
p3946
I16
sS'ging.exbenth.'
p3947
I1
sS'nyar.'
p3948
I1
sS'h.r.reinhard'
p3949
I9
sS'c.c.berg'
p3950
I86
sS'w.h.hou'
p3951
I1
sS's.stokesexjeps.'
p3952
I1
sS'a.rich.'
p3953
I20
sS'c.h.mull.'
p3954
I9
sS'y.r.hwang'
p3955
I1
sS'r.br.exdc.'
p3956
I1
sS'b.c.johnst.'
p3957
I3
sS'mart.'
p3958
I29
sS'c.simon'
p3959
I1
sS'suess.exholzh.'
p3960
I1
sS'w.j.zhang'
p3961
I3
sS'wolfg.schmidt'
p3962
I1
sS'd.g.drury'
p3963
I1
sS'constantin.'
p3964
I1
sS'a.cunn.exhook.'
p3965
I2
sS'korsh.'
p3966
I3
sS's.dasgupta'
p3967
I2
sS'moc.'
p3968
I1
sS't.kato'
p3969
I1
sS'p.guinet'
p3970
I2
sS'eselt.'
p3971
I1
sS'warb.'
p3972
I14
sS'e.danesch'
p3973
I16
sS'jakow.'
p3974
I1
sS'h.perrier'
p3975
I67
sS'kablk.ex?elak.'
p3976
I1
sS'i.darbysh.'
p3977
I15
sS'f.michx.'
p3978
I2
sS'pant.'
p3979
I2
sS'c.dc.'
p3980
I34
sS'j.s.carrin'
p3981
I1
sS'ten.'
p3982
I41
sS'wall.exg.don'
p3983
I5
sS'p.a.gonzalez'
p3984
I2
sS'steinh.'
p3985
I3
sS'r.keller'
p3986
I7
sS'q.l.wang'
p3987
I1
sS's.s.ying'
p3988
I5
sS's.fernndezjimenez'
p3989
I1
sS'reichg.'
p3990
I2
sS'r.r.mill'
p3991
I9
sS's.k.sharma'
p3992
I1
sS'khlew.exrupr.'
p3993
I1
sS'touss.'
p3994
I1
sS'raymond-hametexh.ohba'
p3995
I1
sS'm.c.s.cunha'
p3996
I1
sS'torr.exrydb.'
p3997
I1
sS'nazim.'
p3998
I2
sS'j.z.qiu'
p3999
I1
sS'm.m.mart.ort.'
p4000
I1
sS'g.h.ward'
p4001
I1
sS'pobed.'
p4002
I8
sS'j.t.pan'
p4003
I16
sS'y.h.li'
p4004
I1
sS'j.wagner'
p4005
I5
sS'borss.waalk.'
p4006
I5
sS'hook.f.'
p4007
I134
sS'thomasexw.d.j.koch'
p4008
I1
sS'a.j.hend.'
p4009
I68
sS'ludw.'
p4010
I1
sS'h.r.jiang'
p4011
I1
sS'm.g.gangop.'
p4012
I6
sS'p.angelis'
p4013
I1
sS'a.d.lthy'
p4014
I1
sS'j.paxton'
p4015
I1
sS'v.naray.'
p4016
I1
sS'rhl.'
p4017
I1
sS'j.hlzinger'
p4018
I1
sS'p.c.boyce'
p4019
I4
sS'stefanov.'
p4020
I2
sS'r.wegener'
p4021
I1
sS'v.s.kumar'
p4022
I3
sS'ghesq.'
p4023
I1
sS'katt.'
p4024
I12
sS'o.c.schmidt'
p4025
I1
sS'razafim.'
p4026
I2
sS'champ.exbenth'
p4027
I1
sS'a.castro'
p4028
I1
sS'w.hahn'
p4029
I1
sS'cutandaexwillk.'
p4030
I1
sS'r.a.rodr.'
p4031
I4
sS'rich.'
p4032
I1
sS'j.w.'
p4033
I1
sS'w.r.b.oliv.'
p4034
I8
sS'r.a.foster'
p4035
I10
sS'm.s.novos.'
p4036
I2
sS'huds.'
p4037
I4
sS'trautv.exv.i.krecz.'
p4038
I1
sS'y.w.law'
p4039
I8
sS'p.f.yeo'
p4040
I1
sS'e.britton'
p4041
I1
sS'h.j.choi'
p4042
I1
sS'g.kothe-heinrich'
p4043
I1
sS'r.wolf'
p4044
I1
sS'w.e.manning'
p4045
I4
sS'schltr.exmattf.'
p4046
I1
sS'mouill.'
p4047
I2
sS'escud.'
p4048
I1
sS'wolfg.exgorski'
p4049
I1
sS'b.schmid'
p4050
I4
sS'r.zhuge'
p4051
I1
sS'jeanb.'
p4052
I6
sS'a.hellerexeastw.'
p4053
I1
sS'd.g.long'
p4054
I10
sS'juss.'
p4055
I2
sS'blumeexmiq.'
p4056
I1
sS'm.gomes'
p4057
I1
sS'tateexj.m.black'
p4058
I1
sS'leenh.'
p4059
I19
sS'breitw.'
p4060
I5
sS'k.richt.'
p4061
I38
sS'p.l.fiedl.'
p4062
I2
sS'planch.exwedd.'
p4063
I1
sS'peterb.adams'
p4064
I3
sS'pierreexlaness.'
p4065
I1
sS's.akiyama'
p4066
I3
sS'd.f.gao'
p4067
I1
sS'c.k.schneid.'
p4068
I73
sS'v.r.fuentes'
p4069
I3
sS'h.rob.'
p4070
I8
sS'malag.exj.gran'
p4071
I1
sS'l.w.lenz'
p4072
I4
sS'a.hansen'
p4073
I2
sS'jac.koopman'
p4074
I1
sS'l.e.skog'
p4075
I24
sS'sch.bip.exchrist'
p4076
I1
sS'herrm.'
p4077
I1
sS'desv.'
p4078
I5
sS'g.e.schultz'
p4079
I1
sS'n.garcia'
p4080
I1
sS'l.k.fu'
p4081
I16
sS'g.j.allman'
p4082
I1
sS't.yamanaka'
p4083
I3
sS'g.kirchn.'
p4084
I3
sS'f.muell.exregel'
p4085
I1
sS'coss.'
p4086
I28
sS'j.a.n.parnell'
p4087
I3
sS'maext.n.ho'
p4088
I1
sS'desmoul.'
p4089
I2
sS'j.m.greef'
p4090
I1
sS'k.j.cowley'
p4091
I2
sS't.z.hsu'
p4092
I4
sS's.yunliang'
p4093
I5
sS'phil.'
p4094
I54
sS'v.i.krecz.'
p4095
I11
sS'ausserd.exheinr.braun'
p4096
I1
sS'malag.'
p4097
I7
sS'mariz.'
p4098
I1
sS'v.w.steinm.'
p4099
I6
sS'j.g.garca'
p4100
I1
sS'e.zippel'
p4101
I1
sS'balb.'
p4102
I1
sS'c.yen'
p4103
I1
sS'schiffn.'
p4104
I3
sS't.e.hunt'
p4105
I1
sS'pro.sp.'
p4106
I5
sS'weiheexmert.'
p4107
I1
sS'boiss.'
p4108
I453
sS'a.i.baranov'
p4109
I1
sS'k.morschek'
p4110
I1
sS'c.j.tseng'
p4111
I1
sS'h.a.mill.'
p4112
I1
sS'c.d.specht'
p4113
I1
sS'r.t.clausen'
p4114
I26
sS'lamb.'
p4115
I1
sS'w.r.barker'
p4116
I2
sS'welw.exsamp.'
p4117
I1
sS't.koyamaexw.t.lee'
p4118
I1
sS'lpezesp.'
p4119
I1
sS'j.b.armstr.'
p4120
I1
sS's.holzapfel'
p4121
I1
sS'f.conti'
p4122
I4
sS'warb.exk.schum.'
p4123
I1
sS'a.pujadas'
p4124
I2
sS'e.y.dawson'
p4125
I3
sS'i.m.oliv.'
p4126
I21
sS'spruceexbenth.'
p4127
I2
sS'g.kellerexschrenk'
p4128
I1
sS'j.t.hunter'
p4129
I1
sS'w.h.drury'
p4130
I1
sS'f.ludw.exbriq.'
p4131
I1
sS'fouill.'
p4132
I1
sS'c.y.yu'
p4133
I4
sS'markgr.-dann.'
p4134
I1
sS'e.martnez'
p4135
I1
sS'nyr.'
p4136
I26
sS'w.l.wagner'
p4137
I42
sS'w.dietr.'
p4138
I5
sS'r.c.foster'
p4139
I7
sS'h.l.yang'
p4140
I2
sS'backeb.exhochsttter'
p4141
I1
sS'ngstr.'
p4142
I1
sS'benth.exhohen.'
p4143
I1
sS'schelk.'
p4144
I8
sS"d'urv."
p4145
I3
sS'j.verschaff.'
p4146
I1
sS'c.h.stirt.'
p4147
I1
sS'engelm.exbaker'
p4148
I1
sS'petunn.'
p4149
I2
sS't.wendt'
p4150
I3
sS'i.m.johnston'
p4151
I1
sS'strandh.'
p4152
I1
sS't.a.frick'
p4153
I1
sS'f.maek.exakasawa'
p4154
I2
sS'nieuwl.'
p4155
I1
sS'e.willing'
p4156
I10
sS'wittm.'
p4157
I6
sS'c.c.hall'
p4158
I2
sS'thell.'
p4159
I47
sS'f.phil.exphil.'
p4160
I1
sS'engelm.exa.gray'
p4161
I1
sS'h.r.fletcher'
p4162
I7
sS'w.m.chu'
p4163
I6
sS'c.west'
p4164
I3
sS'hitchc.'
p4165
I12
sS'j.a.duke'
p4166
I14
sS'u.guzmancruz'
p4167
I1
sS'h.j.thomps.'
p4168
I5
sS'l.d.shen'
p4169
I2
sS'k.c.kuan'
p4170
I1
sS'malag.exortegaoliv.'
p4171
I1
sS'celak.'
p4172
I7
sS'm.martens'
p4173
I8
sS'hesl.-harr.exw.w.sm.'
p4174
I1
sS'j.k.wu'
p4175
I4
sS'w.k.harris'
p4176
I1
sS'gon.'
p4177
I1
sS'i.soriano'
p4178
I1
sS'j.sauer'
p4179
I1
sS'janarth.'
p4180
I1
sS'bonap.'
p4181
I7
sS'podz.'
p4182
I3
sS'r.martinez'
p4183
I1
sS'b.c.stone'
p4184
I26
sS'd.j.rogers'
p4185
I20
sS'p.y.fu'
p4186
I11
sS'w.r.linton'
p4187
I1
sS'guarr.'
p4188
I1
sS'y.hueihuang'
p4189
I1
sS's.rosilloexsaltero'
p4190
I1
sS'j.guho'
p4191
I1
sS'webbexmoq.'
p4192
I1
sS'eggl.exg.n.jones'
p4193
I1
sS'h.n.pojark.'
p4194
I1
sS'fisch.exrchb.'
p4195
I1
sS'a.zimm.'
p4196
I1
sS'j.j.sm.exsteenis'
p4197
I1
sS'i.j.williams'
p4198
I2
sS'turcz.exledeb.'
p4199
I1
sS'r.s.rogers'
p4200
I8
sS'medik.'
p4201
I3
sS'w.stone'
p4202
I3
sS'p.bernet'
p4203
I1
sS'g.m.zhang'
p4204
I1
sS'vuk.'
p4205
I7
sS'w.c.hodgs.'
p4206
I3
sS'm.j.roe'
p4207
I1
sS'f.muell.'
p4208
I67
sS'a.t.romeroexg.lopezgonzalez'
p4209
I1
sS'g.b.ownbey'
p4210
I8
sS'y.q.tseng'
p4211
I1
sS'c.r.broome'
p4212
I1
sS'l.andersson'
p4213
I3
sS'schmollexr.t.craig'
p4214
I1
sS'z.wei'
p4215
I6
sS'k.a.grant'
p4216
I1
sS'w.foelsche'
p4217
I7
sS'j.l.tapia'
p4218
I2
sS'crp.exreut.'
p4219
I1
sS'kirk.'
p4220
I1
sS'm.e.jonesexj.m.coult.'
p4221
I1
sS'o.gruss'
p4222
I18
sS'p.royen'
p4223
I17
sS'g.k.rogers'
p4224
I1
sS'dc.'
p4225
I267
sS'eastw.exrydb.'
p4226
I1
sS'betol.'
p4227
I1
sS's.hammer'
p4228
I2
sS'c.e.c.fisch.'
p4229
I6
sS'f.friedmann'
p4230
I2
sS'breckonexfern.casas'
p4231
I2
sS'savul.'
p4232
I2
sS'?elak.'
p4233
I22
sS'v.engl.'
p4234
I4
sS'miscz.'
p4235
I2
sS'c.r.hardy'
p4236
I1
sS's.agrawal'
p4237
I1
sS'wall.exmeisn.'
p4238
I1
sS'j.m.mill.'
p4239
I6
sS'o.behr'
p4240
I8
sS'b.gray'
p4241
I1
sS'hort.exdippel'
p4242
I1
sS's.y.wang'
p4243
I1
sS'm.peck'
p4244
I18
sS'backeb.'
p4245
I21
sS'd.f.cui'
p4246
I1
sS'grossh.'
p4247
I13
sS'bakerf.'
p4248
I51
sS'camb.'
p4249
I1
sS'c.b.clarkeexhook.f.'
p4250
I1
sS'yu.tanaka'
p4251
I1
sS'petrahoffm.'
p4252
I10
sS'g.allen'
p4253
I1
sS'engelm.'
p4254
I76
sS'forssk.'
p4255
I6
sS'miscz.exgrossh.'
p4256
I1
sS's.l.chen'
p4257
I6
sS'r.t.craig'
p4258
I4
sS'hillc.'
p4259
I2
sS's.stokesexm.e.jones'
p4260
I1
sS'm.f.johnson'
p4261
I2
sS'f.schmidt'
p4262
I6
sS'd.y.wang'
p4263
I2
sS'crumexjeps.'
p4264
I1
sS'e.p.perrier'
p4265
I1
sS'j.f.cheng'
p4266
I1
sS'c.j.webb'
p4267
I10
sS'r.grether'
p4268
I3
sS'lindeb.'
p4269
I3
sS'c.morton'
p4270
I2
sS'bertol.'
p4271
I14
sS'szlach.'
p4272
I2
sS'wender.'
p4273
I1
sS'c.clark'
p4274
I3
sS'a.j.scott'
p4275
I11
sS'w.j.hess'
p4276
I2
sS'c.m.hu'
p4277
I36
sS't.j.so>!rensen'
p4278
I1
sS'ziel.'
p4279
I2
sS'endl.'
p4280
I16
sS'dethard.'
p4281
I1
sS'c.p.wang'
p4282
I1
sS'r.c.fang'
p4283
I10
sS't.c.g.rich'
p4284
I7
sS'o.bols'
p4285
I99
sS'eichlerexgriseb.'
p4286
I1
sS'kamik.'
p4287
I1
sS'c.a.wileyexrauh'
p4288
I1
sS'c.boillat'
p4289
I1
sS'poit.'
p4290
I2
sS'l.c.lamb.'
p4291
I5
sS'd.guillot'
p4292
I1
sS'klinsm.'
p4293
I1
sS'w.dod'
p4294
I1
sS'vieill.'
p4295
I1
sS'm.schnfelder'
p4296
I1
sS'k.t.fu'
p4297
I9
sS'p.g.windisch'
p4298
I3
sS'roxb.exg.don'
p4299
I1
sS't.naito'
p4300
I1
sS's.chawla'
p4301
I1
sS'h.sun'
p4302
I2
sS'suess.exsuess.'
p4303
I1
sS'a.l.weitzman'
p4304
I1
sS's.s.hooper'
p4305
I10
sS'w.g.craib'
p4306
I4
sS'g.stbing'
p4307
I1
sS'marg.'
p4308
I1
sS'hort.exrehder'
p4309
I2
sS'e.sobrinovesperinas'
p4310
I2
sS'm.a.exell'
p4311
I1
sS'bisch.exshnittspalm'
p4312
I1
sS'x.x.chen'
p4313
I1
sS'posp.'
p4314
I2
sS'esfand.'
p4315
I2
sS'y.c.ho'
p4316
I2
sS'j.schultze-motel'
p4317
I1
sS'h.s.chen'
p4318
I1
sS'p.a.duvign.'
p4319
I10
sS'h.c.fu'
p4320
I4
sS'thomsonexc.b.clarke'
p4321
I1
sS'spreng.'
p4322
I14
sS'lej.'
p4323
I1
sS't.yamaz.'
p4324
I22
sS'lv.'
p4325
I1
sS'arn.'
p4326
I33
sS'c.cusset'
p4327
I4
sS'd.c.eaton'
p4328
I5
sS'prokh.'
p4329
I5
sS'd.h.goldman'
p4330
I1
sS'm.c.wang'
p4331
I2
sS'r.d.good'
p4332
I4
sS'p.c.dejong'
p4333
I10
sS'a.m.lu'
p4334
I2
sS'fujiw.'
p4335
I4
sS'cham.'
p4336
I18
sS'poppend.'
p4337
I3
sS'r.c.rmer'
p4338
I2
sS'j.snchez'
p4339
I1
sS'e.y.chen'
p4340
I1
sS'jeps.'
p4341
I129
sS'schrad.'
p4342
I5
sS'vanjaarsv.'
p4343
I7
sS'lidnexc.y.wu'
p4344
I2
sS'hausskn.'
p4345
I68
sS'bak.f.'
p4346
I2
sS'hort.["s.g."]'
p4347
I1
sS'sanguin.'
p4348
I1
sS'cardotexj.e.vidal'
p4349
I1
sS'arn.exhook.f.'
p4350
I1
sS'schellenb.'
p4351
I1
sS'sabr.'
p4352
I1
sS'ohwiext.koyama'
p4353
I1
sS'w.w.mitch.'
p4354
I3
sS'j.b.williams'
p4355
I1
sS'b.f.osoriol'
p4356
I1
sS'wacht.'
p4357
I2
sS'giul.'
p4358
I12
sS'hats.'
p4359
I1
sS'lamoureuxexj.a.thomson'
p4360
I1
sS'yo.zhang'
p4361
I1
sS'giesenh.'
p4362
I1
sS'vascon.'
p4363
I1
sS'd.r.morgan'
p4364
I16
sS'groverexcooperr.'
p4365
I1
sS'c.gay'
p4366
I1
sS'sard.rosc.'
p4367
I1
sS'hack.exa.reyn.'
p4368
I1
sS'l.p.kvist'
p4369
I7
sS'h.steedman'
p4370
I3
sS'm.g.liu'
p4371
I1
sS'fisch.'
p4372
I17
sS'humb.'
p4373
I1
sS'hils.'
p4374
I1
sS'l.f.'
p4375
I7
sS'reynelexc.nelson'
p4376
I3
sS'e.l.taylorexmondragn'
p4377
I1
sS'stadlm.'
p4378
I1
sS'r.ross'
p4379
I1
sS'a.clifford'
p4380
I1
sS'j.m.black'
p4381
I12
sS'g.h.wang'
p4382
I1
sS'b.h.choi'
p4383
I1
sS'kolak.'
p4384
I2
sS'a.rajendran'
p4385
I1
sS'maxim.expalib.'
p4386
I1
sS'raunk.'
p4387
I1
sS'perreexa.chev.'
p4388
I1
sS'chantaran.'
p4389
I4
sS'd.brndz?'
p4390
I1
sS'd.f.austin'
p4391
I7
sS'denot.'
p4392
I4
sS'hartw.exgordon'
p4393
I1
sS'j.collins'
p4394
I1
sS'ahlfv.'
p4395
I1
sS'j.p.roux'
p4396
I2
sS'jenn.'
p4397
I3
sS'murrexgraebn.'
p4398
I1
sS'e.mey.exsond.'
p4399
I2
sS'bornm.exstrid'
p4400
I1
sS'abrom.'
p4401
I1
sS'blatt.'
p4402
I6
sS'b.k.simon'
p4403
I9
sS'g.unger'
p4404
I2
sS'boryexboiss.'
p4405
I1
sS'g.c.chapman'
p4406
I1
sS'b.l.rob.expiper'
p4407
I1
sS'tharpexa.camus'
p4408
I1
sS'bieb.exreichenb.'
p4409
I1
sS'a.cunn.extul.'
p4410
I1
sS'rouyexa.camus'
p4411
I1
sS'w.c.chengexw.p.fang'
p4412
I1
sS'dufourexdc.'
p4413
I1
sS'nutt.exgreene'
p4414
I1
sS'g.r.krause'
p4415
I1
sS'e.mey.exturcz.'
p4416
I1
sS'donnexkergawl.'
p4417
I1
sS'a.galandemera'
p4418
I1
s.