(dp1
S'b. h. long'
p2
I8
sS'd. kraemer'
p3
I1
sS'a. w. upham'
p4
I12
sS'h. b. correll'
p5
I1
sS'h. t. croasdale'
p6
I4
sS'c. a. taylor jr.'
p7
I17
sS'r. c. foster'
p8
I5
sS'e. moore'
p9
I2
sS'f. f. jones'
p10
I38
sS'p. riner'
p11
I1
sS'p. rines'
p12
I2
sS'a. t. b.'
p13
I1
sS'r. t. clausen'
p14
I18
sS's. b. krochmal'
p15
I5
sS'j. k. carmody'
p16
I4
sS'w. h. wiegmann'
p17
I6
sS'h. e. greenwood'
p18
I2
sS'c. l. wilson'
p19
I1
sS'j. burroughs'
p20
I4
sS'm. knauz'
p21
I1
sS'w. w. smith'
p22
I9
sS'c. stevens'
p23
I2
sS'r. l. schaeffer jr.'
p24
I3
sS'l. p. latimer'
p25
I1
sS't. c. baim'
p26
I29
sS'mrs. bertha lambert'
p27
I1
sS'e. j. dole'
p28
I3
sS'w. m. h. drury jr.'
p29
I16
sS'm. a. rice'
p30
I21
sS'w. e. manning'
p31
I17
sS'h. g. rugg'
p32
I1
sS'm. j. clement'
p33
I2
sS'm. a. chrysler'
p34
I1
sS'f. h. sargent'
p35
I1
sS'l. h. charette'
p36
I1
sS'a. r. hodgdon'
p37
I316
sS'g. e. babel'
p38
I2
sS'b. gates'
p39
I2
sS'e. m. tate'
p40
I2
sS'w. h. welch'
p41
I1
sS'drury jr.'
p42
I7
sS'l. d. stair'
p43
I2
sS'r. m. tryon jr.'
p44
I2
sS'a. c. pawsey'
p45
I1
sS'r. barrett'
p46
I1
sS'l. c. wheeler'
p47
I9
sS'm. dawson'
p48
I1
sS'd. a. stubbs'
p49
I1
sS'a. s. p.'
p50
I1
sS'b. g. schubert'
p51
I6
sS'e. johnson'
p52
I3
sS'c. a.'
p53
I1
sS'p. river'
p54
I25
sS'j. m. mainville'
p55
I2
sS'a. s. clark'
p56
I1
sS'c. h. knowlton'
p57
I119
sS'h. e. moore jr.'
p58
I22
sS'm. t. hyatt'
p59
I33
sS's. col.'
p60
I2
sS'h. s. clapp'
p61
I3
sS'h. thurston'
p62
I3
sS'j. f. smith'
p63
I5
sS'j. waisanan'
p64
I1
sS'f. p. wadleigh'
p65
I3
sS'm. t. travis'
p66
I10
sS'l. h. dewey'
p67
I1
sS'r. latham'
p68
I1
sS'a. rehder'
p69
I2
sS'm. duman'
p70
I1
sS'o. e. jennings'
p71
I10
sS'j. a. elliott'
p72
I1
sS'e. hehre'
p73
I1
sS'e. t. moul'
p74
I1
sS'd. easton'
p75
I5
sS'd. wise'
p76
I1
sS'l. c. m. croizat'
p77
I1
sS'j. blum'
p78
I1
sS'w. richardson'
p79
I2
sS'g. h. h. tate'
p80
I2
sS'u.l. weatherby'
p81
I9
sS'r. barratt'
p82
I12
sS'm. hopkins'
p83
I13
sS'p. rhines'
p84
I13
sS'r. h.'
p85
I1
sS'f. a. wiley'
p86
I1
sS's. e. clemants'
p87
I1
sS'w. h. drury jr.'
p88
I50
sS'd. p. rogers'
p89
I4
sS'j. l. s. simpso'
p90
I2
sS'm. c. dodge'
p91
I1
sS'w. dreyer'
p92
I1
sS'c. schweinfurth'
p93
I2
sS'r. eggert'
p94
I9
sS'e. stevenson'
p95
I2
sS'e. sheehan'
p96
I1
sS'e. j. palmer'
p97
I354
sS'e. r. clausen'
p98
I13
sS'e. m. kittredge'
p99
I3
sS'a. t. beals'
p100
I37
sS'r. t. wareham'
p101
I6
sS'd. kramer'
p102
I3
sS'a. j. grout'
p103
I2
sS'j. elliot'
p104
I1
sS'n. f. clement'
p105
I25
sS'r. w. harrington'
p106
I6
sS'p. rothrock'
p107
I1
sS'p. j. v. melle'
p108
I74
sS'c. darling'
p109
I4
sS'e. gould'
p110
I1
sS'k. p. jansson'
p111
I2
sS'c. j. lyon'
p112
I4
sS'h. a. giddings'
p113
I2
sS'b. j. pawsey'
p114
I1
sS'a. w. driggs'
p115
I1
sS'j. c. wicks'
p116
I1
sS'a. hodgdon'
p117
I1
sS'f. c. seymour'
p118
I8
sS'g. g. neering'
p119
I1
sS'w. starr'
p120
I1
sS'r. harrington'
p121
I10
sS'r. c .bean'
p122
I43
sS'j. elliott'
p123
I3
sS'g. s. torrey'
p124
I1
sS'r. w. barratt'
p125
I1
sS'c. c. hanmer'
p126
I1
sS'w. f. westerfel'
p127
I1
sS"d. o'brien"
p128
I1
sS'mrs. g. d. chase'
p129
I1
sS'm. a. johnson'
p130
I1
sS'p. schafer'
p131
I1
sS'f. b. wadleigh'
p132
I2
sS'j. l. edwards'
p133
I1
sS'c. a. weatherby'
p134
I83
sS'j. r. heplar'
p135
I1
sS'w. r. taylor'
p136
I2
sS'a. s. pease'
p137
I393
sS'p. moorenovich'
p138
I4
sS'g. e. nichols'
p139
I1
sS'j. r. hepler'
p140
I1
sS'h. e. sargent'
p141
I2
sS'c. a. wetherby'
p142
I1
sS'r. l. schaeffer'
p143
I7
sS'a. r. hodgson'
p144
I1
sS'l. b. smith'
p145
I8
sS'g. b. claycomb'
p146
I1
sS'c. m. boardman'
p147
I72
sS'o. brown'
p148
I1
sS'r. h. mccauley'
p149
I3
sS'h. k. svenson'
p150
I1
sS'b. drumheller'
p151
I1
sS'r. m. schuster'
p152
I1
sS'm. v. beals'
p153
I5
sS'e. roper'
p154
I3
sS'l. a.'
p155
I3
sS'p. pines'
p156
I1
sS'w. valentine'
p157
I1
sS'l. a. wheeler'
p158
I1
sS'm. bill'
p159
I1
sS'g. n. jones'
p160
I40
sS'e. t. wherry'
p161
I1
sS'w. c. gates'
p162
I1
sS'e. h. mcclelland'
p163
I4
sS'a. j. beals'
p164
I1
sS'leopold a.'
p165
I2
sS'l. a. charette'
p166
I8
sS'e. converse'
p167
I3
sS'j. stair'
p168
I4
sS'e. lawton'
p169
I1
sS's. k. eastwood'
p170
I13
sS'j. a. shafer'
p171
I3
sS'd. berkheimer'
p172
I10
sS'i. w. anderson'
p173
I3
sS'c. m. litch'
p174
I1
sS'a. t.'
p175
I2
sS'e. e. clark'
p176
I2
sS'a. b. stout'
p177
I1
sS'a. k. harrison'
p178
I2
sS'e. lord'
p179
I2
sS'm. u. beals'
p180
I1
sS'f. drumheller'
p181
I18
sS'h. d. house'
p182
I3
sS'b. n. gates'
p183
I69
sS'f. w. hunnewell'
p184
I30
sS'r. f. thorne'
p185
I1
sS'h. p.'
p186
I3
sS'd. benson'
p187
I1
sS'robert w. harrington'
p188
I1
sS's. l. kelsey'
p189
I2
sS'e. b. matzke'
p190
I6
sS'r. wood'
p191
I2
sS'w. k. babel'
p192
I166
sS'd. l. emerson'
p193
I2
sS'j. p. poole'
p194
I6
sS'h. clapp'
p195
I238
sS'p. hamner'
p196
I1
sS'j. j. wurdack'
p197
I1
sS's. f. chamberlain'
p198
I2
sS'i. m. haring'
p199
I8
sS'a. r. hodgon'
p200
I4
sS'w. h. hodge'
p201
I6
sS'w. l. dix'
p202
I4
sS'l. grant'
p203
I2
sS'r. a. taylor'
p204
I1
sS'j. p. anderson'
p205
I3
sS'h. h. iltis'
p206
I1
sS'l. h. bailey'
p207
I1
sS'p. schaefer'
p208
I3
sS'w. h. drury'
p209
I6
sS'p. boehmer'
p210
I1
sS'u. f. weatherby'
p211
I36
sS's. merrett'
p212
I1
sS'r. g. harlow'
p213
I2
sS'e. c. ogden'
p214
I1
sS'w. b. brierly'
p215
I1
sS'una f. weatherby'
p216
I1
sS'j. a. schafer'
p217
I9
sS'n. coon'
p218
I1
sS'w. babel'
p219
I1
s.