(dp1
S'g. i. m.'
p2
I1
sS'p. marble'
p3
I1
sS'h. n. moldenke'
p4
I20
sS'h. t. croasdale'
p5
I7
sS'r. j. eaton'
p6
I2
sS'f. f. jones'
p7
I2
sS'm. atwood'
p8
I1
sS'h. s. clapp'
p9
I7
sS'm. h. fulford'
p10
I3
sS'w. h. wiegmann'
p11
I2
sS'w. f. rapp'
p12
I5
sS'h. haberu'
p13
I1
sS'r. v.'
p14
I1
sS'r. l. schaeffer jr.'
p15
I1
sS'm. white'
p16
I1
sS'w. g. farlow'
p17
I1
sS'm. a. rice'
p18
I1
sS'a. j. grout'
p19
I14
sS'b. hoyle'
p20
I11
sS'm. a. chrysler'
p21
I2
sS'w. r. trask'
p22
I9
sS'a. r. hodgdon'
p23
I447
sS'e. roper'
p24
I3
sS'b. gates'
p25
I2
sS'w. l. dix'
p26
I11
sS'c. c. perry'
p27
I1
sS'l. d. stair'
p28
I1
sS'i. w. knobloch'
p29
I1
sS'r. latham'
p30
I19
sS'w. r. trosk'
p31
I3
sS'r. abell'
p32
I12
sS'c. h. knowlton'
p33
I66
sS'm. duman'
p34
I2
sS'd. berkheimer'
p35
I4
sS'w. a. matthews'
p36
I1
sS'a. schrock'
p37
I2
sS'w. f. rapp jr.'
p38
I3
sS'e. w. thompson'
p39
I1
sS'j. f. smith'
p40
I1
sS'g. e. howard'
p41
I1
sS'h. habeeb'
p42
I20
sS'r. h. mocauley'
p43
I1
sS't. h. everett'
p44
I1
sS'r. carrier'
p45
I2
sS'g. mckoone'
p46
I1
sS'f. a. balch'
p47
I1
sS'b. burton'
p48
I1
sS'f. c. seymour et aliis'
p49
I4
sS'f. e. wynne'
p50
I20
sS'm. fulford'
p51
I1
sS'd. l. leighton'
p52
I1
sS'p. moorenovitch'
p53
I1
sS'r. tasker'
p54
I7
sS'r. h. carrier'
p55
I1
sS'r. h.'
p56
I2
sS'john t.b.'
p57
I1
sS'd. p. rogers'
p58
I1
sS'c. a. taylor'
p59
I1
sS'c. schweinfurth'
p60
I1
sS'r. eggert'
p61
I3
sS'r. t. clausen'
p62
I1
sS'e. j. palmer'
p63
I107
sS'c. s. marsh'
p64
I1
sS'a. e. cole'
p65
I1
sS'a. t. beals'
p66
I2
sS'm. davis'
p67
I1
sS'e. m. gorman'
p68
I1
sS'e. r. roper'
p69
I2
sS'e. stiller'
p70
I19
sS'r. c. bean'
p71
I1
sS'h. a. giddings jr.'
p72
I20
sS'g. mckane'
p73
I1
sS'c. darling'
p74
I1
sS'r. a. latham'
p75
I3
sS'taylor jr.'
p76
I2
sS'h. a. giddings'
p77
I37
sS'j. g. esson'
p78
I1
sS'a. hodgdon'
p79
I1
sS'f. c. seymour'
p80
I113
sS'f. e. wimmer'
p81
I1
sS'h. wilkens'
p82
I1
sS'p. mosvenovitch'
p83
I2
sS'j. burroughs'
p84
I4
sS'c. kinney'
p85
I1
sS'r. c .bean'
p86
I56
sS'katherine d. barnes'
p87
I1
sS'l. serkess'
p88
I9
sS'c. a. cheever'
p89
I2
sS'e. m. garman'
p90
I1
sS'mrs. g. d. chase'
p91
I1
sS'w. c. brumbach'
p92
I2
sS'o. m. schuster'
p93
I13
sS'j. l. edwards'
p94
I1
sS'c. a. weatherby'
p95
I8
sS'c. s. hicks'
p96
I2
sS'w. r. taylor'
p97
I3
sS'a. s. pease'
p98
I334
sS'p. moorenovich'
p99
I9
sS'g. e. nichols'
p100
I2
sS's. k. eastwood'
p101
I4
sS'r. a. clark'
p102
I2
sS'r. dodge'
p103
I1
sS'd. l. ordway'
p104
I1
sS'l. b. smith'
p105
I1
sS'c. m. boardman'
p106
I65
sS'j. p. bill'
p107
I2
sS'r. h. mccauley'
p108
I3
sS'l. carlson'
p109
I6
sS'r. m. schuster'
p110
I26
sS'k. woodward'
p111
I1
sS'h. koster'
p112
I2
sS'a. j.'
p113
I1
sS'c. a. taylor jr.'
p114
I37
sS'w. e. manning'
p115
I4
sS'l. a.'
p116
I1
sS'b. s. merigold'
p117
I3
sS'm. bill'
p118
I1
sS'g. n. jones'
p119
I3
sS'e. t. wherry'
p120
I2
sS'w. c. gates'
p121
I17
sS'h. l. green'
p122
I1
sS'f. drumbeller'
p123
I2
sS'g. i. mckrone'
p124
I2
sS'g. m. seymour'
p125
I1
sS'l. a. charette'
p126
I2
sS's. r. nursery'
p127
I3
sS"d. o\\\\'brien"
p128
I1
sS'm. w. taylor'
p129
I1
sS'g. mckrone'
p130
I14
sS'p. j. v. melle'
p131
I97
sS'o. e. jennings'
p132
I2
sS'i. knobloch'
p133
I2
sS'g. s. torrey'
p134
I1
sS'b. h. slavin'
p135
I1
sS'a. k. harrison'
p136
I6
sS'h. e. downer'
p137
I4
sS'f. drumheller'
p138
I12
sS'r. canvier'
p139
I2
sS'h. d. house'
p140
I5
sS'b. n. gates'
p141
I190
sS'f. w. hunnewell'
p142
I22
sS'g. eiten'
p143
I3
sS'k. w. woodward'
p144
I1
sS's. j. ewer'
p145
I2
sS'e. b. matzke'
p146
I3
sS'm. mcleod'
p147
I1
sS'j. a. patterson'
p148
I1
sS'r. b. gordon'
p149
I4
sS'r. e. torrey'
p150
I6
sS'h. clapp'
p151
I3
sS'e. b. harger'
p152
I1
sS'i. m. haring'
p153
I10
sS'm. merriam'
p154
I8
sS'e. a. rau'
p155
I1
sS'h. giddings jr.'
p156
I1
sS'charles a.'
p157
I2
sS'a. j. cronquist'
p158
I1
sS'f. h. allen'
p159
I2
sS'k. d. barnes'
p160
I9
sS'r. camier'
p161
I1
sS'e. savage'
p162
I1
sS'w. f. fiske'
p163
I1
sS'b. n. gata'
p164
I1
sS'g. j. mckrone'
p165
I1
sS'w. gates'
p166
I3
sS's. n. f. sanford'
p167
I2
sS'h. p.'
p168
I1
sS'w. trask'
p169
I2
s.