(dp1
S's. n. f. sauford'
p2
I1
sS'miss i. c. shattuck'
p3
I8
sS'h. n. moldenke'
p4
I10
sS'louis a.'
p5
I1
sS'h. t. croasdale'
p6
I23
sS'r. l. crockett'
p7
I1
sS'h. s. clapp'
p8
I23
sS'c. henry'
p9
I1
sS'w. h. thies'
p10
I3
sS'h. e. greenwood'
p11
I3
sS'w. r. taylor'
p12
I25
sS'c. c. hanmer'
p13
I1
sS'b. bill'
p14
I2
sS'd. potter'
p15
I2
sS'm. a. rice'
p16
I2
sS'l. gordon'
p17
I8
sS'g. wyatt'
p18
I1
sS'r. c .bean'
p19
I18
sS'r. t. wareham'
p20
I11
sS'm. a. chrysler'
p21
I3
sS'a. w. driggs'
p22
I4
sS'a. r. hodgdon'
p23
I232
sS'b. ekstrom'
p24
I1
sS'b. gates'
p25
I2
sS'e. c. rice'
p26
I10
sS'e. m. tate'
p27
I1
sS'l. k. henry'
p28
I3
sS'w. l. dix'
p29
I3
sS'h. a. scribner'
p30
I1
sS'l. d. stair'
p31
I118
sS'j. h. tiney'
p32
I16
sS'f. huntington'
p33
I1
sS'e. b. anderson'
p34
I2
sS'c. a. brown'
p35
I14
sS'i. w. knobloch'
p36
I2
sS'r. latham'
p37
I10
sS'w. rader'
p38
I1
sS'j. l. cooper'
p39
I2
sS'c. s. bryan'
p40
I1
sS'c. h. knowlton'
p41
I87
sS'm. gale'
p42
I4
sS'wm. rader'
p43
I2
sS'robert l. crockett'
p44
I1
sS'e. c. earle'
p45
I1
sS'm. t. hyatt'
p46
I5
sS'r. t. clausen'
p47
I11
sS's. n. f. sandford'
p48
I2
sS't .s. githens'
p49
I9
sS'the mrs. bill'
p50
I1
sS'g. mccrone'
p51
I4
sS'r. carrier'
p52
I22
sS'g. s. torrey'
p53
I1
sS'e. t. moul'
p54
I2
sS'f. a. balch'
p55
I1
sS'f. c. seymour et aliis'
p56
I9
sS'g. h. h. tate'
p57
I1
sS'a. r. hodgson'
p58
I1
sS'h. a. wahl'
p59
I1
sS'j. bright'
p60
I10
sS'lucy m.'
p61
I1
sS'i. m. haring'
p62
I13
sS'h. hazen'
p63
I1
sS's. j. smith'
p64
I1
sS'b. maguire'
p65
I21
sS'c. schweinfurth'
p66
I3
sS'r. eggert'
p67
I3
sS'e. j. palmer'
p68
I49
sS'a. e. cole'
p69
I2
sS'w. c. galin'
p70
I1
sS's. cooper-ellis'
p71
I4
sS'b. hallbrowy'
p72
I1
sS'a.b. f. c. seymour'
p73
I1
sS'l. bill'
p74
I1
sS'e. stiller'
p75
I6
sS'l.d. stair'
p76
I1
sS'h. a. giddings jr.'
p77
I39
sS'p. j. v. melle'
p78
I9
sS'b. c. tan'
p79
I4
sS'r. a. latham'
p80
I3
sS'h. a. giddings'
p81
I33
sS'e. scamman'
p82
I2
sS'f. c. seymour'
p83
I283
sS'h. wilkens'
p84
I2
sS'w. h. thies sr.'
p85
I1
sS'a. j. grout'
p86
I3
sS'f. hunt'
p87
I21
sS'w. p. smith'
p88
I12
sS'c. a. cheever'
p89
I2
sS'e. m. garman'
p90
I1
sS'f. l. steele'
p91
I1
sS'o. m. schuster'
p92
I2
sS'j. w. congdon'
p93
I1
sS'f. j. mcgregor'
p94
I1
sS'b. c. tan s. c. ellis'
p95
I2
sS'c. a. weatherby'
p96
I2
sS'b. blagg'
p97
I1
sS'a. s. pease'
p98
I377
sS'd. r. sumstine'
p99
I1
sS'g. e. nichols'
p100
I2
sS'c. m. boardman'
p101
I23
sS'w. e. manning'
p102
I5
sS'h. k. svenson'
p103
I4
sS'g. h. thomas'
p104
I1
sS'r. m. schuster'
p105
I25
sS'mrs. j.t. richardson'
p106
I1
sS'h. koster'
p107
I2
sS'w. f. rapp'
p108
I2
sS'b. s. merigold'
p109
I5
sS'm. bill'
p110
I1
sS'ms. bill'
p111
I2
sS'j. gale'
p112
I3
sS'h. ahles'
p113
I3
sS'w. c. gates'
p114
I31
sS's. bi'
p115
I1
sS'r. h. wetmore'
p116
I1
sS'f. cunliffe'
p117
I2
sS't. k. barrie'
p118
I1
sS'm. dodge'
p119
I1
sS'g. mckrone'
p120
I18
sS'j. t. richardso'
p121
I1
sS'd. berkheimer'
p122
I15
sS'o. e. jennings'
p123
I7
sS'e. e. clark'
p124
I9
sS'i. c. shattuck'
p125
I20
sS'b. h. slavin'
p126
I2
sS'a. k. harrison'
p127
I13
sS'l. s. bill'
p128
I12
sS'f.c. seymour'
p129
I1
sS'j. t. richardson'
p130
I52
sS'f. philotheus'
p131
I1
sS'e. mcclelland'
p132
I1
sS'h. d. house'
p133
I1
sS'b. n. gates'
p134
I207
sS'f. w. hunnewell'
p135
I20
sS'isabel c.'
p136
I1
sS'w. h. wiegmann'
p137
I4
sS'b. n. bill'
p138
I11
sS'g. hatschbach'
p139
I1
sS'r. e. horsey'
p140
I1
sS'h. clapp'
p141
I15
sS'a. f. yeager'
p142
I8
sS't. kirkbride'
p143
I1
sS'o. degener'
p144
I3
sS'b. + l. bill'
p145
I1
sS'c. h. woodward'
p146
I1
sS'g. zink'
p147
I6
sS'mrs. comins'
p148
I1
sS'n. roberts'
p149
I1
sS'mrs. b. n. gates'
p150
I59
sS'u. f. weatherby'
p151
I2
sS'w. gates'
p152
I24
sS'c. f. weigel'
p153
I1
sS's. n. f. sanford'
p154
I18
sS'h. e. ahles'
p155
I5
sS'j. o. wilson'
p156
I16
sS'r. w. woodward'
p157
I2
sS'w. s. allen'
p158
I9
s.