(dp1
S'b. xu'
p2
I2
sS'c. j. chen'
p3
I2
sS'q. y. xiang'
p4
I10
sS'f. e. brackley-tolman'
p5
I2
sS'd. conant'
p6
I2
sS'y. sun'
p7
I2
sS'l.a. schram'
p8
I1
sS'r. angelo'
p9
I2
sS'r. comeau'
p10
I7
sS'l. duan'
p11
I13
sS'z. y. zhang'
p12
I2
sS'g. a. adelson'
p13
I4
sS'p. s. wang'
p14
I6
sS'j. r. massey'
p15
I1
sS't. yahara'
p16
I4
sS'd. s. conant'
p17
I64
sS'h. e. ahles'
p18
I12
sS'f. brackley'
p19
I12
sS'm. okada'
p20
I13
sS'z. w. ge'
p21
I2
sS'c. x. fu'
p22
I7
sS'l. chute'
p23
I2
sS't. s. ying'
p24
I7
sS'emily w. wood'
p25
I1
sS'harry e. ahles'
p26
I7
sS'j. y. xiang'
p27
I5
sS'h. koyama'
p28
I14
sS'e.w. wood'
p29
I2
sS'wen h. zhang'
p30
I6
sS'e. wood'
p31
I15
sS'd. wickland'
p32
I1
sS'w. e. buker'
p33
I1
sS'j. wen'
p34
I4
sS'e. w. wood'
p35
I583
sS'h. w. li'
p36
I5
sS'd. e boufford'
p37
I1
sS'q. x. xiang'
p38
I6
sS'j. murata'
p39
I17
sS'l. a. schram'
p40
I6
sS'david e. boufford'
p41
I2
sS'h. ohashi'
p42
I30
sS'h.e. ahles'
p43
I2
sS'g. l. zhu'
p44
I2
sS'd. e. boufford'
p45
I1382
sS'e. b. wood'
p46
I1
sS'r. c. moran'
p47
I2
sS'm. marshall'
p48
I28
sS'l. j. mehrhoff'
p49
I32
sS'c. mouri'
p50
I17
sS'y. p. zhao'
p51
I7
sS'r. l. angelo'
p52
I10
sS'l. schram'
p53
I27
sS'w. h. zhang'
p54
I5
sS'm. kato'
p55
I22
sS'w. zhang'
p56
I1
sS't. shimizu'
p57
I2
sS'e. w. li'
p58
I2
sS'f. e. brackley'
p59
I3
sS'b. e. dutton'
p60
I9
sS'harry e.'
p61
I2
sS'a. shimizu'
p62
I13
sS'n. foust'
p63
I3
sS'p. singleton'
p64
I1
sS'c. y. wu'
p65
I2
s.